
Allarm.elf:     file format elf32-littlenios2
Allarm.elf
architecture: nios2:r1, flags 0x00000112:
EXEC_P, HAS_SYMS, D_PAGED
start address 0x000401c0

Program Header:
    LOAD off    0x00001020 vaddr 0x00040020 paddr 0x00040020 align 2**12
         filesz 0x00020800 memsz 0x00020800 flags r-x
    LOAD off    0x00021820 vaddr 0x00060820 paddr 0x00062470 align 2**12
         filesz 0x00001c50 memsz 0x00001c50 flags rw-
    LOAD off    0x000240c0 vaddr 0x000640c0 paddr 0x000640c0 align 2**12
         filesz 0x00000000 memsz 0x0000018c flags rw-
    LOAD off    0x00024000 vaddr 0x000a0000 paddr 0x000a0000 align 2**12
         filesz 0x00000020 memsz 0x00000020 flags r-x

Sections:
Idx Name          Size      VMA       LMA       File off  Algn
  0 .entry        00000020  000a0000  000a0000  00024000  2**5
                  CONTENTS, ALLOC, LOAD, READONLY, CODE
  1 .exceptions   000001a0  00040020  00040020  00001020  2**2
                  CONTENTS, ALLOC, LOAD, READONLY, CODE
  2 .text         0001f9b4  000401c0  000401c0  000011c0  2**2
                  CONTENTS, ALLOC, LOAD, READONLY, CODE
  3 .rodata       00000cac  0005fb74  0005fb74  00020b74  2**2
                  CONTENTS, ALLOC, LOAD, READONLY, DATA
  4 .rwdata       00001c50  00060820  00062470  00021820  2**2
                  CONTENTS, ALLOC, LOAD, DATA, SMALL_DATA
  5 .bss          0000018c  000640c0  000640c0  000240c0  2**2
                  ALLOC, SMALL_DATA
  6 .ram          00000000  0006424c  0006424c  00024020  2**0
                  CONTENTS
  7 .rom          00000000  000a0020  000a0020  00024020  2**0
                  CONTENTS
  8 .comment      00000023  00000000  00000000  00024020  2**0
                  CONTENTS, READONLY
  9 .debug_aranges 00001528  00000000  00000000  00024048  2**3
                  CONTENTS, READONLY, DEBUGGING
 10 .debug_info   000346cc  00000000  00000000  00025570  2**0
                  CONTENTS, READONLY, DEBUGGING
 11 .debug_abbrev 0000d618  00000000  00000000  00059c3c  2**0
                  CONTENTS, READONLY, DEBUGGING
 12 .debug_line   00012dd9  00000000  00000000  00067254  2**0
                  CONTENTS, READONLY, DEBUGGING
 13 .debug_frame  000032f0  00000000  00000000  0007a030  2**2
                  CONTENTS, READONLY, DEBUGGING
 14 .debug_str    00004ad4  00000000  00000000  0007d320  2**0
                  CONTENTS, READONLY, DEBUGGING
 15 .debug_loc    0002983f  00000000  00000000  00081df4  2**0
                  CONTENTS, READONLY, DEBUGGING
 16 .debug_alt_sim_info 00000040  00000000  00000000  000ab634  2**2
                  CONTENTS, READONLY, DEBUGGING
 17 .debug_ranges 00002680  00000000  00000000  000ab678  2**3
                  CONTENTS, READONLY, DEBUGGING
 18 .thread_model 00000003  00000000  00000000  000b2049  2**0
                  CONTENTS, READONLY
 19 .cpu          00000004  00000000  00000000  000b204c  2**0
                  CONTENTS, READONLY
 20 .qsys         00000001  00000000  00000000  000b2050  2**0
                  CONTENTS, READONLY
 21 .simulation_enabled 00000001  00000000  00000000  000b2051  2**0
                  CONTENTS, READONLY
 22 .sysid_hash   00000004  00000000  00000000  000b2052  2**0
                  CONTENTS, READONLY
 23 .sysid_base   00000004  00000000  00000000  000b2056  2**0
                  CONTENTS, READONLY
 24 .sysid_time   00000004  00000000  00000000  000b205a  2**0
                  CONTENTS, READONLY
 25 .stderr_dev   0000000b  00000000  00000000  000b205e  2**0
                  CONTENTS, READONLY
 26 .stdin_dev    0000000b  00000000  00000000  000b2069  2**0
                  CONTENTS, READONLY
 27 .stdout_dev   0000000b  00000000  00000000  000b2074  2**0
                  CONTENTS, READONLY
 28 .sopc_system_name 00000005  00000000  00000000  000b207f  2**0
                  CONTENTS, READONLY
 29 .quartus_project_dir 00000016  00000000  00000000  000b2084  2**0
                  CONTENTS, READONLY
 30 .sopcinfo     000793aa  00000000  00000000  000b209a  2**0
                  CONTENTS, READONLY
SYMBOL TABLE:
000a0000 l    d  .entry	00000000 .entry
00040020 l    d  .exceptions	00000000 .exceptions
000401c0 l    d  .text	00000000 .text
0005fb74 l    d  .rodata	00000000 .rodata
00060820 l    d  .rwdata	00000000 .rwdata
000640c0 l    d  .bss	00000000 .bss
0006424c l    d  .ram	00000000 .ram
000a0020 l    d  .rom	00000000 .rom
00000000 l    d  .comment	00000000 .comment
00000000 l    d  .debug_aranges	00000000 .debug_aranges
00000000 l    d  .debug_info	00000000 .debug_info
00000000 l    d  .debug_abbrev	00000000 .debug_abbrev
00000000 l    d  .debug_line	00000000 .debug_line
00000000 l    d  .debug_frame	00000000 .debug_frame
00000000 l    d  .debug_str	00000000 .debug_str
00000000 l    d  .debug_loc	00000000 .debug_loc
00000000 l    d  .debug_alt_sim_info	00000000 .debug_alt_sim_info
00000000 l    d  .debug_ranges	00000000 .debug_ranges
00000000 l    df *ABS*	00000000 D:/alarm/qsys/software/Allarm_bsp//obj/HAL/src/crt0.o
000401f8 l       .text	00000000 alt_after_alt_main
00000000 l    df *ABS*	00000000 alt_exception_entry.o
00040094 l       .exceptions	00000000 alt_exception_unknown
00000000 l    df *ABS*	00000000 alt_irq_handler.c
00000000 l    df *ABS*	00000000 hello_world.c
00000000 l    df *ABS*	00000000 sf_cos.c
00000000 l    df *ABS*	00000000 sf_sin.c
00000000 l    df *ABS*	00000000 w_atan2.c
00000000 l    df *ABS*	00000000 e_atan2.c
00000000 l    df *ABS*	00000000 ef_rem_pio2.c
0005fd30 l     O .rodata	00000318 two_over_pi
0005fcb0 l     O .rodata	00000080 npio2_hw
00000000 l    df *ABS*	00000000 kf_cos.c
00000000 l    df *ABS*	00000000 kf_rem_pio2.c
00060074 l     O .rodata	0000000c init_jk
00060048 l     O .rodata	0000002c PIo2
00000000 l    df *ABS*	00000000 kf_sin.c
00000000 l    df *ABS*	00000000 s_atan.c
000600a0 l     O .rodata	00000020 atanhi
00060080 l     O .rodata	00000020 atanlo
00000000 l    df *ABS*	00000000 s_fabs.c
00000000 l    df *ABS*	00000000 sf_fabs.c
00000000 l    df *ABS*	00000000 sf_floor.c
00000000 l    df *ABS*	00000000 sf_scalbn.c
00000000 l    df *ABS*	00000000 sf_copysign.c
00000000 l    df *ABS*	00000000 lib2-divmod.c
00000000 l    df *ABS*	00000000 lib2-mul.c
00000000 l    df *ABS*	00000000 addsf3.c
00000000 l    df *ABS*	00000000 divsf3.c
00000000 l    df *ABS*	00000000 eqsf2.c
00000000 l    df *ABS*	00000000 gesf2.c
00000000 l    df *ABS*	00000000 lesf2.c
00000000 l    df *ABS*	00000000 mulsf3.c
00000000 l    df *ABS*	00000000 subsf3.c
00000000 l    df *ABS*	00000000 fixsfsi.c
00000000 l    df *ABS*	00000000 floatsisf.c
00000000 l    df *ABS*	00000000 adddf3.c
00000000 l    df *ABS*	00000000 divdf3.c
00000000 l    df *ABS*	00000000 gedf2.c
00000000 l    df *ABS*	00000000 ledf2.c
00000000 l    df *ABS*	00000000 muldf3.c
00000000 l    df *ABS*	00000000 subdf3.c
00000000 l    df *ABS*	00000000 extendsfdf2.c
00000000 l    df *ABS*	00000000 truncdfsf2.c
00000000 l    df *ABS*	00000000 libgcc2.c
00000000 l    df *ABS*	00000000 libgcc2.c
00000000 l    df *ABS*	00000000 memset.c
00000000 l    df *ABS*	00000000 printf.c
00000000 l    df *ABS*	00000000 putchar.c
00000000 l    df *ABS*	00000000 puts.c
00000000 l    df *ABS*	00000000 scanf.c
00000000 l    df *ABS*	00000000 sprintf.c
00000000 l    df *ABS*	00000000 strlen.c
00000000 l    df *ABS*	00000000 vfprintf.c
00060206 l     O .rodata	00000010 zeroes.4389
00060216 l     O .rodata	00000010 blanks.4388
00000000 l    df *ABS*	00000000 vfprintf.c
00060226 l     O .rodata	00000010 zeroes.4404
0004d9e8 l     F .text	000000bc __sbprintf
00060236 l     O .rodata	00000010 blanks.4403
00000000 l    df *ABS*	00000000 vfscanf.c
0006024e l     O .rodata	00000022 basefix.4359
00000000 l    df *ABS*	00000000 wsetup.c
00000000 l    df *ABS*	00000000 ctype_.c
00060371 l     O .rodata	00000180 _ctype_b
00000000 l    df *ABS*	00000000 dtoa.c
0004f654 l     F .text	00000228 quorem
00000000 l    df *ABS*	00000000 fflush.c
00000000 l    df *ABS*	00000000 findfp.c
000511ac l     F .text	00000008 __fp_unlock
000511c0 l     F .text	0000019c __sinit.part.1
0005135c l     F .text	00000008 __fp_lock
00000000 l    df *ABS*	00000000 fread.c
00000000 l    df *ABS*	00000000 mallocr.c
00000000 l    df *ABS*	00000000 fvwrite.c
00000000 l    df *ABS*	00000000 fwalk.c
00000000 l    df *ABS*	00000000 impure.c
00060854 l     O .rwdata	00000424 impure_data
00000000 l    df *ABS*	00000000 iswspace.c
00000000 l    df *ABS*	00000000 locale.c
00060c98 l     O .rwdata	00000020 lc_ctype_charset
00060c78 l     O .rwdata	00000020 lc_message_charset
00060cb8 l     O .rwdata	00000038 lconv
00000000 l    df *ABS*	00000000 makebuf.c
00000000 l    df *ABS*	00000000 mallocr.c
00000000 l    df *ABS*	00000000 mbrtowc.c
00000000 l    df *ABS*	00000000 mbtowc_r.c
00000000 l    df *ABS*	00000000 memchr.c
00000000 l    df *ABS*	00000000 memcpy.c
00000000 l    df *ABS*	00000000 memmove.c
00000000 l    df *ABS*	00000000 mprec.c
00060514 l     O .rodata	0000000c p05.2768
00000000 l    df *ABS*	00000000 putc.c
00000000 l    df *ABS*	00000000 mallocr.c
00000000 l    df *ABS*	00000000 refill.c
00054a54 l     F .text	0000001c lflush
00000000 l    df *ABS*	00000000 s_fpclassify.c
00000000 l    df *ABS*	00000000 sbrkr.c
00000000 l    df *ABS*	00000000 sccl.c
00000000 l    df *ABS*	00000000 sf_nan.c
00000000 l    df *ABS*	00000000 stdio.c
00000000 l    df *ABS*	00000000 strcmp.c
00000000 l    df *ABS*	00000000 strtod.c
00054ffc l     F .text	00000064 sulp
00060648 l     O .rodata	00000014 fpinan.2773
0006065c l     O .rodata	00000014 fpi.2737
00060670 l     O .rodata	00000028 tinytens
00000000 l    df *ABS*	00000000 strtol.c
00000000 l    df *ABS*	00000000 strtoll_r.c
00000000 l    df *ABS*	00000000 strtoul.c
00000000 l    df *ABS*	00000000 strtoull_r.c
00000000 l    df *ABS*	00000000 vfprintf.c
00060698 l     O .rodata	00000010 zeroes.4333
000606a8 l     O .rodata	00000010 blanks.4332
00000000 l    df *ABS*	00000000 ungetc.c
00000000 l    df *ABS*	00000000 vfprintf.c
00058a78 l     F .text	000000fc __sprint_r.part.0
000606b8 l     O .rodata	00000010 zeroes.4349
0005a0b4 l     F .text	000000bc __sbprintf
000606c8 l     O .rodata	00000010 blanks.4348
00000000 l    df *ABS*	00000000 wbuf.c
00000000 l    df *ABS*	00000000 writer.c
00000000 l    df *ABS*	00000000 closer.c
00000000 l    df *ABS*	00000000 mallocr.c
00000000 l    df *ABS*	00000000 fclose.c
00000000 l    df *ABS*	00000000 fputwc.c
00000000 l    df *ABS*	00000000 fstatr.c
00000000 l    df *ABS*	00000000 gdtoa-gethex.c
0005a7c0 l     F .text	00000100 rshift
00000000 l    df *ABS*	00000000 gdtoa-hexnan.c
00000000 l    df *ABS*	00000000 int_errno.c
00000000 l    df *ABS*	00000000 isattyr.c
00000000 l    df *ABS*	00000000 lseekr.c
00000000 l    df *ABS*	00000000 readr.c
00000000 l    df *ABS*	00000000 strncmp.c
00000000 l    df *ABS*	00000000 wcrtomb.c
00000000 l    df *ABS*	00000000 wctomb_r.c
00000000 l    df *ABS*	00000000 libgcc2.c
00000000 l    df *ABS*	00000000 libgcc2.c
00000000 l    df *ABS*	00000000 libgcc2.c
00000000 l    df *ABS*	00000000 libgcc2.c
00000000 l    df *ABS*	00000000 eqdf2.c
00000000 l    df *ABS*	00000000 fixdfsi.c
00000000 l    df *ABS*	00000000 floatsidf.c
00000000 l    df *ABS*	00000000 floatunsidf.c
00000000 l    df *ABS*	00000000 alt_close.c
0005c704 l     F .text	0000003c alt_get_errno
00000000 l    df *ABS*	00000000 alt_dev.c
0005c818 l     F .text	0000002c alt_dev_null_write
00000000 l    df *ABS*	00000000 alt_errno.c
00000000 l    df *ABS*	00000000 alt_fstat.c
0005c844 l     F .text	0000003c alt_get_errno
00000000 l    df *ABS*	00000000 alt_iic.c
00000000 l    df *ABS*	00000000 alt_iic_isr_register.c
00000000 l    df *ABS*	00000000 alt_irq_vars.c
00000000 l    df *ABS*	00000000 alt_isatty.c
0005cbd8 l     F .text	0000003c alt_get_errno
00000000 l    df *ABS*	00000000 alt_load.c
0005ccc0 l     F .text	00000068 alt_load_section
00000000 l    df *ABS*	00000000 alt_lseek.c
0005cdac l     F .text	0000003c alt_get_errno
00000000 l    df *ABS*	00000000 alt_main.c
00000000 l    df *ABS*	00000000 alt_malloc_lock.c
00000000 l    df *ABS*	00000000 alt_read.c
0005cf7c l     F .text	0000003c alt_get_errno
00000000 l    df *ABS*	00000000 alt_release_fd.c
00000000 l    df *ABS*	00000000 alt_sbrk.c
00062460 l     O .rwdata	00000004 heap_end
00000000 l    df *ABS*	00000000 alt_usleep.c
00000000 l    df *ABS*	00000000 alt_write.c
0005d220 l     F .text	0000003c alt_get_errno
00000000 l    df *ABS*	00000000 alt_sys_init.c
0005d35c l     F .text	00000034 alt_dev_reg
000612a0 l     O .rwdata	00001060 jtag_uart_0
00062300 l     O .rwdata	00000120 lcd_16207_0
00000000 l    df *ABS*	00000000 altera_avalon_jtag_uart_fd.c
00000000 l    df *ABS*	00000000 altera_avalon_jtag_uart_init.c
0005d668 l     F .text	0000020c altera_avalon_jtag_uart_irq
0005d874 l     F .text	000000a0 altera_avalon_jtag_uart_timeout
00000000 l    df *ABS*	00000000 altera_avalon_jtag_uart_ioctl.c
00000000 l    df *ABS*	00000000 altera_avalon_jtag_uart_read.c
00000000 l    df *ABS*	00000000 altera_avalon_jtag_uart_write.c
00000000 l    df *ABS*	00000000 altera_avalon_lcd_16207.c
00062464 l     O .rwdata	00000004 colstart
0005deac l     F .text	000000b8 lcd_write_command
0005df64 l     F .text	000000d8 lcd_write_data
0005e03c l     F .text	000000e8 lcd_clear_screen
0005e124 l     F .text	00000228 lcd_repaint_screen
0005e34c l     F .text	000000e8 lcd_scroll_up
0005e434 l     F .text	000002c4 lcd_handle_escape
0005ec18 l     F .text	000000ac alt_lcd_16207_timeout
00000000 l    df *ABS*	00000000 altera_avalon_lcd_16207_fd.c
00000000 l    df *ABS*	00000000 altera_avalon_timer_sc.c
0005ee58 l     F .text	00000078 alt_avalon_timer_sc_irq
00000000 l    df *ABS*	00000000 alt_alarm_start.c
00000000 l    df *ABS*	00000000 alt_busy_sleep.c
00000000 l    df *ABS*	00000000 alt_dcache_flush_all.c
00000000 l    df *ABS*	00000000 alt_dev_llist_insert.c
0005f1f0 l     F .text	0000003c alt_get_errno
00000000 l    df *ABS*	00000000 alt_icache_flush_all.c
00000000 l    df *ABS*	00000000 alt_io_redirect.c
0005f2f0 l     F .text	000000e4 alt_open_fd
00000000 l    df *ABS*	00000000 alt_open.c
0005f450 l     F .text	0000003c alt_get_errno
0005f48c l     F .text	000000ec alt_file_locked
00000000 l    df *ABS*	00000000 alt_tick.c
00000000 l    df *ABS*	00000000 altera_nios2_gen2_irq.c
00000000 l    df *ABS*	00000000 alt_find_dev.c
00000000 l    df *ABS*	00000000 alt_find_file.c
00000000 l    df *ABS*	00000000 alt_get_fd.c
00000000 l    df *ABS*	00000000 memcmp.c
00049180 g     F .text	00000018 putchar
00054210 g     F .text	00000074 _mprec_log10
000542fc g     F .text	0000008c __any_on
0005b36c g     F .text	00000054 _isatty_r
00060520 g     O .rodata	00000028 __mprec_tinytens
0005cec4 g     F .text	00000070 alt_main
00042dd0 g     F .text	00000068 lcd_prints
00049198 g     F .text	000000c0 _puts_r
0006414c g     O .bss	00000100 alt_irq
00044d08 g     F .text	00000014 fabs
0005b3c0 g     F .text	00000060 _lseek_r
00062470 g       *ABS*	00000000 __flash_rwdata_start
0005c478 g     F .text	00000088 .hidden __eqdf2
00042908 g     F .text	000001a4 DISP
0006424c g       *ABS*	00000000 __alt_heap_start
0004913c g     F .text	0000003c printf
0005b550 g     F .text	0000009c _wcrtomb_r
00054ebc g     F .text	0000005c __sseek
0005150c g     F .text	00000010 __sinit
0005a170 g     F .text	00000140 __swbuf_r
00052280 g     F .text	0000007c _setlocale_r
00051364 g     F .text	00000078 __sfmoreglue
00058a60 g     F .text	00000018 ungetc
0005cf58 g     F .text	00000024 __malloc_unlock
00055060 g     F .text	000015e4 _strtod_r
00045630 g     F .text	00000440 .hidden __divsf3
000640c4 g     O .bss	00000004 actual_time
00053174 g     F .text	0000015c memmove
000514f4 g     F .text	00000018 _cleanup
00060830 g     O .rwdata	0000000e lcd_string1
000532d0 g     F .text	000000a8 _Balloc
00046580 g     F .text	00000070 .hidden __fixsfsi
000640d7 g     O .bss	00000001 i3
00047990 g     F .text	000000dc .hidden __gtdf2
000425d4 g     F .text	000000dc IRQ_Init
0005f878 g     F .text	00000024 altera_nios2_gen2_irq_init
000640d9 g     O .bss	00000001 matrix_done
000a0000 g     F .entry	0000000c __reset
000432d4 g     F .text	00000524 __ieee754_rem_pio2f
00040020 g       *ABS*	00000000 __flash_exceptions_start
0005a764 g     F .text	0000005c _fstat_r
000640fc g     O .bss	00000004 errno
000a0000 g       *ABS*	00000000 __alt_mem_rom
0004f498 g     F .text	0000001c __svfscanf
00054e38 g     F .text	00000008 __seofread
00042778 g     F .text	000000c8 IRQ_Key_Interrupts2
00057458 g     F .text	000013a0 ___svfiprintf_internal_r
000401fc g     F .text	000002f8 matrix_add
00064108 g     O .bss	00000004 alt_argv
0006a420 g       *ABS*	00000000 _gp
0005d1f0 g     F .text	00000030 usleep
0004609c g     F .text	000004e4 .hidden __subsf3
000640d4 g     O .bss	00000001 lcd_flag
00061120 g     O .rwdata	00000180 alt_fd_list
00049178 g     F .text	00000008 _putchar_r
0005f89c g     F .text	00000090 alt_find_dev
0005302c g     F .text	00000148 memcpy
0005b110 g     F .text	0000025c __hexnan
000511b4 g     F .text	0000000c _cleanup_r
0005c580 g     F .text	000000dc .hidden __floatsidf
0005f3d4 g     F .text	0000007c alt_io_redirect
00047a6c g     F .text	000000f4 .hidden __ltdf2
00049258 g     F .text	00000014 puts
00060840 g     O .rwdata	00000012 lcd_string2
00052dd0 g     F .text	000000d8 mbrtowc
00062420 g     O .rwdata	00000004 alarm_time
00054c44 g     F .text	00000074 __fpclassifyd
0004f4b4 g     F .text	0000004c _vfscanf_r
0005416c g     F .text	000000a4 __ratio
0005a098 g     F .text	0000001c __vfiprintf_internal
0005da6c g     F .text	0000021c altera_avalon_jtag_uart_read
0004910c g     F .text	00000030 _printf_r
00045084 g     F .text	00000064 .hidden __udivsi3
0005cc14 g     F .text	000000ac isatty
00052250 g     F .text	00000030 iswspace
00060570 g     O .rodata	000000c8 __mprec_tens
000522fc g     F .text	0000000c __locale_charset
00045ba4 g     F .text	000000c8 .hidden __lesf2
000640d6 g     O .bss	00000001 i2
0005b844 g     F .text	00000074 .hidden __fixunsdfsi
000640f8 g     O .bss	00000004 __malloc_top_pad
00056f4c g     F .text	0000001c strtoul
00062430 g     O .rwdata	00000004 __mb_cur_max
0005232c g     F .text	0000000c _localeconv_r
00056f68 g     F .text	00000320 _strtoull_r
00040000 g       *ABS*	00000000 __alt_mem_ram
00053704 g     F .text	0000003c __i2b
00051c00 g     F .text	000004c8 __sfvwrite_r
00040a24 g     F .text	000004e4 matrix_inverse
00054cb8 g     F .text	00000054 _sbrk_r
00042b28 g     F .text	00000030 Timer_Start
00044d1c g     F .text	00000010 fabsf
0005b420 g     F .text	00000060 _read_r
00062454 g     O .rwdata	00000004 alt_max_fd
0005a458 g     F .text	000000f0 _fclose_r
0005117c g     F .text	00000030 fflush
000640f4 g     O .bss	00000004 __malloc_max_sbrked_mem
00048cc8 g     F .text	00000110 .hidden __extendsfdf2
00046714 g     F .text	000008ac .hidden __adddf3
00045a70 g     F .text	00000078 .hidden __nesf2
00053f14 g     F .text	0000010c __b2d
0005beb4 g     F .text	000005c4 .hidden __umoddi3
0005cde8 g     F .text	000000dc lseek
00062428 g     O .rwdata	00000004 _global_impure_ptr
000544f0 g     F .text	00000564 _realloc_r
000445c8 g     F .text	000001b8 __kernel_sinf
0006424c g       *ABS*	00000000 __bss_end
0005cae8 g     F .text	000000f0 alt_iic_isr_register
0005f770 g     F .text	00000108 alt_tick
000606d8 g     O .rodata	00000100 __hexdig
0005b8b8 g     F .text	000005fc .hidden __udivdi3
0005a6c0 g     F .text	00000024 _fputwc_r
00060548 g     O .rodata	00000028 __mprec_bigtens
000534e8 g     F .text	00000104 __s2b
0005c65c g     F .text	000000a8 .hidden __floatunsidf
00053c54 g     F .text	00000060 __mcmp
000640dc g     O .bss	00000001 mul_flag
0005152c g     F .text	00000018 __fp_lock_all
0005ca9c g     F .text	0000004c alt_ic_irq_enabled
0005f6d4 g     F .text	0000009c alt_alarm_stop
000569b4 g     F .text	0000001c strtol
00042eb0 g     F .text	000000b0 cosf
00064100 g     O .bss	00000004 alt_irq_active
000400ec g     F .exceptions	000000d4 alt_irq_handler
000610f8 g     O .rwdata	00000028 alt_dev_null
00060820 g     O .rwdata	00000010 table
0005f1d0 g     F .text	00000020 alt_dcache_flush_all
000640e0 g     O .bss	00000004 timer_isr_context
000535ec g     F .text	00000068 __hi0bits
0005c500 g     F .text	00000080 .hidden __fixdfsi
000640c0 g     O .bss	00000001 dis_flag
000437f8 g     F .text	000002cc __kernel_cosf
00056644 g     F .text	00000018 strtod
00062470 g       *ABS*	00000000 __ram_rwdata_end
0006244c g     O .rwdata	00000008 alt_dev_list
0005d25c g     F .text	00000100 write
00054388 g     F .text	000000a0 _putc_r
00043014 g     F .text	000002c0 __ieee754_atan2
00045ae8 g     F .text	000000bc .hidden __gtsf2
00060820 g       *ABS*	00000000 __ram_rodata_end
0005c880 g     F .text	000000b8 fstat
00064118 g     O .bss	00000009 lcd_alarm_time
00047a6c g     F .text	000000f4 .hidden __ledf2
000539cc g     F .text	00000140 __pow5mult
00058b8c g     F .text	0000150c ___vfiprintf_internal_r
000640ec g     O .bss	00000004 __nlocale_changed
000450e8 g     F .text	00000058 .hidden __umodsi3
000492a8 g     F .text	00000030 _scanf_r
00042e38 g     F .text	00000078 select_xy
0006424c g       *ABS*	00000000 end
0005e6f8 g     F .text	00000520 altera_avalon_lcd_16207_write
000640d8 g     O .bss	00000001 mode
0005d5a8 g     F .text	000000c0 altera_avalon_jtag_uart_init
00072000 g       *ABS*	00000000 __alt_stack_pointer
0005eed0 g     F .text	0000007c alt_avalon_timer_sc_init
00048f80 g     F .text	00000064 .hidden __clzsi2
0005dc88 g     F .text	00000224 altera_avalon_jtag_uart_write
00041f40 g     F .text	000000dc matrix_print
0005151c g     F .text	00000004 __sfp_lock_acquire
00052f48 g     F .text	000000e4 memchr
0004b6f0 g     F .text	000022dc ___vfprintf_internal_r
000492d8 g     F .text	00000058 _sprintf_r
000640cc g     O .bss	00000004 lcd_active
000518f0 g     F .text	00000310 _free_r
00052308 g     F .text	00000010 __locale_mb_cur_max
000640e8 g     O .bss	00000004 __mlocale_changed
00062434 g     O .rwdata	00000004 __malloc_sbrk_base
000401c0 g     F .text	0000003c _start
00064110 g     O .bss	00000004 _alt_tick_rate
000569d0 g     F .text	00000304 _strtoll_r
000407ec g     F .text	00000238 matrix_multiply
00053b0c g     F .text	00000148 __lshift
00043010 g     F .text	00000004 atan2
00064114 g     O .bss	00000004 _alt_nticks
0005cfb8 g     F .text	00000104 read
0005d3c8 g     F .text	0000007c alt_sys_init
000465f0 g     F .text	00000124 .hidden __floatsisf
00057288 g     F .text	000001d0 __ssprint_r
0005b480 g     F .text	000000d0 strncmp
00053740 g     F .text	0000028c __multiply
0005d914 g     F .text	00000068 altera_avalon_jtag_uart_close
00045140 g     F .text	00000028 .hidden __mulsi3
00060820 g       *ABS*	00000000 __ram_rwdata_start
0005fb74 g       *ABS*	00000000 __ram_rodata_start
00064124 g     O .bss	00000028 __malloc_current_mallinfo
00045a70 g     F .text	00000078 .hidden __eqsf2
00054020 g     F .text	0000014c __d2b
00042cbc g     F .text	00000030 check_busy
0005d444 g     F .text	00000060 altera_avalon_jtag_uart_read_fd
00056cd4 g     F .text	00000278 _strtoul_r
0005fa34 g     F .text	000000c4 alt_get_fd
0005f078 g     F .text	00000158 alt_busy_sleep
0005a328 g     F .text	00000054 _close_r
0005faf8 g     F .text	0000007c memcmp
0005d504 g     F .text	00000050 altera_avalon_jtag_uart_close_fd
0006424c g       *ABS*	00000000 __alt_stack_base
0005d554 g     F .text	00000054 altera_avalon_jtag_uart_ioctl_fd
0004f500 g     F .text	00000154 __swsetup_r
00046fc0 g     F .text	000009d0 .hidden __divdf3
000513dc g     F .text	00000118 __sfp
00054284 g     F .text	00000078 __copybits
00060cf0 g     O .rwdata	00000408 __malloc_av_
00051528 g     F .text	00000004 __sinit_lock_release
00047b60 g     F .text	0000086c .hidden __muldf3
00054de4 g     F .text	00000054 __sread
00051798 g     F .text	00000034 fread
0005f92c g     F .text	00000108 alt_find_file
0005f22c g     F .text	000000a4 alt_dev_llist_insert
0005cf34 g     F .text	00000024 __malloc_lock
0005d140 g     F .text	000000b0 sbrk
00049434 g     F .text	000022bc ___svfprintf_internal_r
00044e30 g     F .text	00000144 scalbnf
00051120 g     F .text	0000005c _fflush_r
0005a37c g     F .text	000000dc _calloc_r
000640c0 g       *ABS*	00000000 __bss_start
00048fe4 g     F .text	00000128 memset
00042cec g     F .text	000000e4 lcd_init
0004201c g     F .text	000005b8 main
0006410c g     O .bss	00000004 alt_envp
000640f0 g     O .bss	00000004 __malloc_max_total_mem
0005d4a4 g     F .text	00000060 altera_avalon_jtag_uart_write_fd
0005a2b0 g     F .text	00000018 __swbuf
00045ba4 g     F .text	000000c8 .hidden __ltsf2
0005155c g     F .text	0000023c _fread_r
0005ecc4 g     F .text	00000134 altera_avalon_lcd_16207_init
00054f18 g     F .text	00000008 __sclose
00072000 g       *ABS*	00000000 __alt_heap_limit
0005a548 g     F .text	00000014 fclose
0005675c g     F .text	00000258 _strtol_r
00048dd8 g     F .text	000001a8 .hidden __truncdfsf2
0004f87c g     F .text	00001688 _dtoa_r
00052518 g     F .text	0000080c _malloc_r
0005b6ac g     F .text	00000030 __ascii_wctomb
000640c1 g     O .bss	00000001 add_func
00062458 g     O .rwdata	00000004 alt_errno
000587f8 g     F .text	000000d4 __submore
000520c8 g     F .text	000000c4 _fwalk
00052eec g     F .text	0000005c _mbtowc_r
00054428 g     F .text	000000c8 putc
00044f8c g     F .text	00000084 .hidden __divsi3
000517cc g     F .text	00000124 _malloc_trim_r
00045c6c g     F .text	00000430 .hidden __mulsf3
00054f20 g     F .text	000000dc strcmp
0005fb74 g       *ABS*	00000000 __flash_rodata_start
00042840 g     F .text	000000c8 IRQ_Key_Interrupts3
000404f4 g     F .text	000002f8 matrix_sub
000640d0 g     O .bss	00000004 count
00042c74 g     F .text	00000048 delay
0005c478 g     F .text	00000088 .hidden __nedf2
0005d390 g     F .text	00000038 alt_irq_init
0005d0bc g     F .text	00000084 alt_release_fd
00044f74 g     F .text	00000018 copysignf
00044780 g     F .text	00000588 atan
00049330 g     F .text	0000006c sprintf
000600c0 g     O .rodata	00000100 .hidden __clz_tab
000640e4 g     O .bss	00000004 _PathLocale
0005665c g     F .text	00000100 strtof
00045ae8 g     F .text	000000bc .hidden __gesf2
0005a2c8 g     F .text	00000060 _write_r
00052338 g     F .text	00000018 setlocale
00042b58 g     F .text	00000030 Timer_Stop
0004926c g     F .text	0000003c scanf
00054ddc g     F .text	00000008 nanf
0006242c g     O .rwdata	00000004 _impure_ptr
00064104 g     O .bss	00000004 alt_argc
00050f04 g     F .text	0000021c __sflush_r
00052d24 g     F .text	000000ac _mbrtowc_r
00052324 g     F .text	00000008 __locale_cjk_lang
00054a70 g     F .text	000001d4 __srefill_r
00040020 g       .exceptions	00000000 alt_irq_entry
00052ea8 g     F .text	00000044 __ascii_mbtowc
00053eb0 g     F .text	00000064 __ulp
00051544 g     F .text	00000018 __fp_unlock_all
0005edf8 g     F .text	00000060 altera_avalon_lcd_16207_write_fd
00062444 g     O .rwdata	00000008 alt_fs_list
00042f60 g     F .text	000000b0 sinf
00040020 g       *ABS*	00000000 __ram_exceptions_start
00052350 g     F .text	0000000c localeconv
0005c938 g     F .text	00000050 alt_ic_isr_register
00062470 g       *ABS*	00000000 _edata
0006424c g       *ABS*	00000000 _end
00040f08 g     F .text	00001038 svd_decomposition
0005a55c g     F .text	00000164 __fputwc
000401c0 g       *ABS*	00000000 __ram_exceptions_end
0004f430 g     F .text	00000068 vfscanf
0005d97c g     F .text	000000f0 altera_avalon_jtag_uart_ioctl
0005ca10 g     F .text	0000008c alt_ic_irq_disable
00054e40 g     F .text	0000007c __swrite
00062438 g     O .rwdata	00000004 __malloc_trim_threshold
00052318 g     F .text	0000000c __locale_msgcharset
0005218c g     F .text	000000c4 _fwalk_reent
00053cb4 g     F .text	000001fc __mdiff
000640d5 g     O .bss	00000001 i1
00045010 g     F .text	00000074 .hidden __modsi3
00062424 g     O .rwdata	00000004 __ctype_ptr__
00072000 g       *ABS*	00000000 __alt_data_end
00040020 g     F .exceptions	00000000 alt_exception
00051520 g     F .text	00000004 __sfp_lock_release
00054d0c g     F .text	000000d0 __sccl
00060270 g     O .rodata	00000101 _ctype_
00042aac g     F .text	0000007c Timer_Initial
0006243c g     O .rwdata	00000004 __mbtowc
000a000c g       .entry	00000000 _exit
00043ac4 g     F .text	00000b04 __kernel_rem_pio2f
0005ef4c g     F .text	0000012c alt_alarm_start
0005b738 g     F .text	0000010c .hidden __muldi3
00042b88 g     F .text	000000ec Timer_ISR
0005235c g     F .text	000001bc __smakebuf_r
0004939c g     F .text	00000098 strlen
0005f578 g     F .text	0000015c open
00047990 g     F .text	000000dc .hidden __gedf2
0005a8c0 g     F .text	00000850 __gethex
00062440 g     O .rwdata	00000004 __wctomb
00058b74 g     F .text	00000018 __sprint_r
0005f2d0 g     F .text	00000020 alt_icache_flush_all
00044d2c g     F .text	00000104 floorf
000640c8 g     O .bss	00000004 alarm_active
0006245c g     O .rwdata	00000004 alt_priority_mask
0005c988 g     F .text	00000088 alt_ic_irq_enable
0004d9cc g     F .text	0000001c __vfprintf_internal
0005b6dc g     F .text	0000005c _wctomb_r
000483cc g     F .text	000008fc .hidden __subdf3
00053654 g     F .text	000000b0 __lo0bits
0004daa4 g     F .text	0000198c __svfscanf_r
00062468 g     O .rwdata	00000008 alt_alarm_list
000588cc g     F .text	00000194 _ungetc_r
0005b5ec g     F .text	000000c0 wcrtomb
0005c740 g     F .text	000000d8 close
00045168 g     F .text	000004c8 .hidden __addsf3
0005cd28 g     F .text	00000084 alt_load
0005a6e4 g     F .text	00000080 fputwc
00051524 g     F .text	00000004 __sinit_lock_acquire
000533a0 g     F .text	00000148 __multadd
00053378 g     F .text	00000028 _Bfree
000426b0 g     F .text	000000c8 IRQ_Key_Interrupts1



Disassembly of section .entry:

000a0000 <__reset>:
 * Jump to the _start entry point in the .text section if reset code
 * is allowed or if optimizing for RTL simulation.
 */
#if defined(ALT_ALLOW_CODE_AT_RESET) || defined(ALT_SIM_OPTIMIZE)
    /* Jump to the _start entry point in the .text section. */
    movhi r1, %hi(_start)
   a0000:	00400134 	movhi	at,4
    ori r1, r1, %lo(_start)
   a0004:	08407014 	ori	at,at,448
    jmp r1
   a0008:	0800683a 	jmp	at

000a000c <_exit>:
	...

Disassembly of section .exceptions:

00040020 <alt_exception>:

#else /* ALT_EXCEPTION_STACK disabled */
        /* 
         * Reserve space on normal stack for registers about to be pushed.
         */
        addi  sp, sp, -76
   40020:	deffed04 	addi	sp,sp,-76
         * documentation for details).
         *
         * Leave a gap in the stack frame at 4(sp) for the muldiv handler to
         * store zero into.
         */
        stw   ra,  0(sp)
   40024:	dfc00015 	stw	ra,0(sp)
        stw   r1,   8(sp)
   40028:	d8400215 	stw	at,8(sp)
        stw   r2,  12(sp)
   4002c:	d8800315 	stw	r2,12(sp)
        stw   r3,  16(sp)
   40030:	d8c00415 	stw	r3,16(sp)
        stw   r4,  20(sp)
   40034:	d9000515 	stw	r4,20(sp)
        stw   r5,  24(sp)
   40038:	d9400615 	stw	r5,24(sp)
        stw   r6,  28(sp)
   4003c:	d9800715 	stw	r6,28(sp)
        stw   r7,  32(sp)
   40040:	d9c00815 	stw	r7,32(sp)
        rdctl r5, estatus   /* Read early to avoid usage stall */
   40044:	000b307a 	rdctl	r5,estatus
        stw   r8,  36(sp)
   40048:	da000915 	stw	r8,36(sp)
        stw   r9,  40(sp)
   4004c:	da400a15 	stw	r9,40(sp)
        stw   r10, 44(sp)
   40050:	da800b15 	stw	r10,44(sp)
        stw   r11, 48(sp)
   40054:	dac00c15 	stw	r11,48(sp)
        stw   r12, 52(sp)
   40058:	db000d15 	stw	r12,52(sp)
        stw   r13, 56(sp)
   4005c:	db400e15 	stw	r13,56(sp)
        stw   r14, 60(sp)
   40060:	db800f15 	stw	r14,60(sp)
        stw   r15, 64(sp)
   40064:	dbc01015 	stw	r15,64(sp)
        /*
         * ea-4 contains the address of the instruction being executed
         * when the exception occured. For interrupt exceptions, we will
         * will be re-issue the isntruction. Store it in 72(sp)
         */
        stw   r5,  68(sp)  /* estatus */
   40068:	d9401115 	stw	r5,68(sp)
        addi  r15, ea, -4  /* instruction that caused exception */
   4006c:	ebffff04 	addi	r15,ea,-4
        stw   r15,  72(sp)
   40070:	dbc01215 	stw	r15,72(sp)
#else
        /*
         * Test to see if the exception was a software exception or caused 
         * by an external interrupt, and vector accordingly.
         */
        rdctl r4, ipending
   40074:	0009313a 	rdctl	r4,ipending
        andi  r2, r5, 1
   40078:	2880004c 	andi	r2,r5,1
        beq   r2, zero, .Lnot_irq
   4007c:	10000326 	beq	r2,zero,4008c <alt_exception+0x6c>
        beq   r4, zero, .Lnot_irq
   40080:	20000226 	beq	r4,zero,4008c <alt_exception+0x6c>
        /*
         * Now that all necessary registers have been preserved, call 
         * alt_irq_handler() to process the interrupts.
         */

        call alt_irq_handler
   40084:	00400ec0 	call	400ec <alt_irq_handler>

        .section .exceptions.irqreturn, "xa"

        br    .Lexception_exit
   40088:	00000306 	br	40098 <alt_exception_unknown+0x4>
         * upon completion, so we write ea (address of instruction *after*
         * the one where the exception occured) into 72(sp). The actual
         * instruction that caused the exception is written in r2, which these
         * handlers will utilize.
         */
        stw ea, 72(sp) /* EA is PC+4 so will skip over instruction causing exception */
   4008c:	df401215 	stw	ea,72(sp)
.Lunknown_16bit:
        addi.n r4, r4, 2 /* Need PC+2 to skip over instruction causing exception */
        stw r4, 72(sp)

#else /* CDX is not Enabled and all instructions are 32bits */
        ldw r2, -4(ea) /* Instruction value that caused exception */
   40090:	e8bfff17 	ldw	r2,-4(ea)

00040094 <alt_exception_unknown>:
#ifdef NIOS2_HAS_DEBUG_STUB
       /*
        *  Either tell the user now (if there is a debugger attached) or go into
        *  the debug monitor which will loop until a debugger is attached.
        */
        break
   40094:	003da03a 	break	0
        /* 
         * Restore the saved registers, so that all general purpose registers 
         * have been restored to their state at the time the interrupt occured.
         */

        ldw   r5,  68(sp)
   40098:	d9401117 	ldw	r5,68(sp)
        ldw   ea,  72(sp)  /* This becomes the PC once eret is executed */
   4009c:	df401217 	ldw	ea,72(sp)
        ldw   ra,   0(sp)
   400a0:	dfc00017 	ldw	ra,0(sp)

        wrctl estatus, r5
   400a4:	2801707a 	wrctl	estatus,r5

        ldw   r1,   8(sp)
   400a8:	d8400217 	ldw	at,8(sp)
        ldw   r2,  12(sp)
   400ac:	d8800317 	ldw	r2,12(sp)
        ldw   r3,  16(sp)
   400b0:	d8c00417 	ldw	r3,16(sp)
        ldw   r4,  20(sp)
   400b4:	d9000517 	ldw	r4,20(sp)
        ldw   r5,  24(sp)
   400b8:	d9400617 	ldw	r5,24(sp)
        ldw   r6,  28(sp)
   400bc:	d9800717 	ldw	r6,28(sp)
        ldw   r7,  32(sp)
   400c0:	d9c00817 	ldw	r7,32(sp)

#if defined(ALT_EXCEPTION_STACK) && defined(ALT_STACK_CHECK)
        ldw   et, %gprel(alt_exception_old_stack_limit)(gp)
#endif

        ldw   r8,  36(sp)
   400c4:	da000917 	ldw	r8,36(sp)
        ldw   r9,  40(sp)
   400c8:	da400a17 	ldw	r9,40(sp)
        ldw   r10, 44(sp)
   400cc:	da800b17 	ldw	r10,44(sp)
        ldw   r11, 48(sp)
   400d0:	dac00c17 	ldw	r11,48(sp)
        ldw   r12, 52(sp)
   400d4:	db000d17 	ldw	r12,52(sp)
        ldw   r13, 56(sp)
   400d8:	db400e17 	ldw	r13,56(sp)
        ldw   r14, 60(sp)
   400dc:	db800f17 	ldw	r14,60(sp)
        ldw   r15, 64(sp)
   400e0:	dbc01017 	ldw	r15,64(sp)
        stw   et, %gprel(alt_stack_limit_value)(gp)
        stw   zero, %gprel(alt_exception_old_stack_limit)(gp)
#endif /* ALT_STACK_CHECK */
        ldw   sp,  76(sp)
#else /* ALT_EXCEPTION_STACK disabled */
        addi  sp, sp, 76
   400e4:	dec01304 	addi	sp,sp,76

        /*
         * Return to the interrupted instruction.
         */

        eret
   400e8:	ef80083a 	eret

000400ec <alt_irq_handler>:
 * instruction is present if the macro ALT_CI_INTERRUPT_VECTOR defined.
 */

void alt_irq_handler (void) __attribute__ ((section (".exceptions")));
void alt_irq_handler (void)
{
   400ec:	defff904 	addi	sp,sp,-28
   400f0:	dfc00615 	stw	ra,24(sp)
   400f4:	df000515 	stw	fp,20(sp)
   400f8:	df000504 	addi	fp,sp,20
  
  /*
   * Notify the operating system that we are at interrupt level.
   */ 
  
  ALT_OS_INT_ENTER();
   400fc:	0001883a 	nop
#ifndef NIOS2_EIC_PRESENT
static ALT_INLINE alt_u32 ALT_ALWAYS_INLINE alt_irq_pending (void)
{
  alt_u32 active;

  NIOS2_READ_IPENDING (active);
   40100:	0005313a 	rdctl	r2,ipending
   40104:	e0bffe15 	stw	r2,-8(fp)

  return active;
   40108:	e0bffe17 	ldw	r2,-8(fp)
   * Consider the case where the high priority interupt is asserted during
   * the interrupt entry sequence for a lower priority interrupt to see why
   * this is the case.
   */

  active = alt_irq_pending ();
   4010c:	e0bffb15 	stw	r2,-20(fp)

  do
  {
    i = 0;
   40110:	e03ffd15 	stw	zero,-12(fp)
    mask = 1;
   40114:	00800044 	movi	r2,1
   40118:	e0bffc15 	stw	r2,-16(fp)
     * called to clear the interrupt condition.
     */

    do
    {
      if (active & mask)
   4011c:	e0fffb17 	ldw	r3,-20(fp)
   40120:	e0bffc17 	ldw	r2,-16(fp)
   40124:	1884703a 	and	r2,r3,r2
   40128:	10001426 	beq	r2,zero,4017c <alt_irq_handler+0x90>
      { 
#ifdef ALT_ENHANCED_INTERRUPT_API_PRESENT
        alt_irq[i].handler(alt_irq[i].context); 
   4012c:	008001b4 	movhi	r2,6
   40130:	10905304 	addi	r2,r2,16716
   40134:	e0fffd17 	ldw	r3,-12(fp)
   40138:	180690fa 	slli	r3,r3,3
   4013c:	10c5883a 	add	r2,r2,r3
   40140:	10c00017 	ldw	r3,0(r2)
   40144:	008001b4 	movhi	r2,6
   40148:	10905304 	addi	r2,r2,16716
   4014c:	e13ffd17 	ldw	r4,-12(fp)
   40150:	200890fa 	slli	r4,r4,3
   40154:	1105883a 	add	r2,r2,r4
   40158:	10800104 	addi	r2,r2,4
   4015c:	10800017 	ldw	r2,0(r2)
   40160:	1009883a 	mov	r4,r2
   40164:	183ee83a 	callr	r3
#else
        alt_irq[i].handler(alt_irq[i].context, i); 
#endif
        break;
   40168:	0001883a 	nop
#ifndef NIOS2_EIC_PRESENT
static ALT_INLINE alt_u32 ALT_ALWAYS_INLINE alt_irq_pending (void)
{
  alt_u32 active;

  NIOS2_READ_IPENDING (active);
   4016c:	0005313a 	rdctl	r2,ipending
   40170:	e0bfff15 	stw	r2,-4(fp)

  return active;
   40174:	e0bfff17 	ldw	r2,-4(fp)
   40178:	00000706 	br	40198 <alt_irq_handler+0xac>
      }
      mask <<= 1;
   4017c:	e0bffc17 	ldw	r2,-16(fp)
   40180:	1085883a 	add	r2,r2,r2
   40184:	e0bffc15 	stw	r2,-16(fp)
      i++;
   40188:	e0bffd17 	ldw	r2,-12(fp)
   4018c:	10800044 	addi	r2,r2,1
   40190:	e0bffd15 	stw	r2,-12(fp)

    } while (1);
   40194:	003fe106 	br	4011c <_exit+0xfffa0110>

    active = alt_irq_pending ();
   40198:	e0bffb15 	stw	r2,-20(fp)
    
  } while (active);
   4019c:	e0bffb17 	ldw	r2,-20(fp)
   401a0:	103fdb1e 	bne	r2,zero,40110 <_exit+0xfffa0104>

  /*
   * Notify the operating system that interrupt processing is complete.
   */ 

  ALT_OS_INT_EXIT();
   401a4:	0001883a 	nop
}
   401a8:	0001883a 	nop
   401ac:	e037883a 	mov	sp,fp
   401b0:	dfc00117 	ldw	ra,4(sp)
   401b4:	df000017 	ldw	fp,0(sp)
   401b8:	dec00204 	addi	sp,sp,8
   401bc:	f800283a 	ret

Disassembly of section .text:

000401c0 <_start>:

    /*
     * Now that the caches are initialized, set up the stack pointer and global pointer.
     * The values provided by the linker are assumed to be correctly aligned.
     */
    movhi sp, %hi(__alt_stack_pointer)
   401c0:	06c001f4 	movhi	sp,7
    ori sp, sp, %lo(__alt_stack_pointer)
   401c4:	dec80014 	ori	sp,sp,8192
    movhi gp, %hi(_gp)
   401c8:	068001b4 	movhi	gp,6
    ori gp, gp, %lo(_gp)
   401cc:	d6a90814 	ori	gp,gp,42016
 */
#ifndef ALT_SIM_OPTIMIZE
    /* Log that the BSS is about to be cleared. */
    ALT_LOG_PUTS(alt_log_msg_bss)

    movhi r2, %hi(__bss_start)
   401d0:	008001b4 	movhi	r2,6
    ori r2, r2, %lo(__bss_start)
   401d4:	10903014 	ori	r2,r2,16576

    movhi r3, %hi(__bss_end)
   401d8:	00c001b4 	movhi	r3,6
    ori r3, r3, %lo(__bss_end)
   401dc:	18d09314 	ori	r3,r3,16972

    beq r2, r3, 1f
   401e0:	10c00326 	beq	r2,r3,401f0 <_start+0x30>

0:
    stw zero, (r2)
   401e4:	10000015 	stw	zero,0(r2)
    addi r2, r2, 4
   401e8:	10800104 	addi	r2,r2,4
    bltu r2, r3, 0b
   401ec:	10fffd36 	bltu	r2,r3,401e4 <_exit+0xfffa01d8>
     * section aren't defined until alt_load() has been called).
     */
    mov   et, zero
#endif

    call alt_load
   401f0:	005cd280 	call	5cd28 <alt_load>

    /* Log that alt_main is about to be called. */
    ALT_LOG_PUTS(alt_log_msg_alt_main)

    /* Call the C entry point. It should never return. */
    call alt_main
   401f4:	005cec40 	call	5cec4 <alt_main>

000401f8 <alt_after_alt_main>:

    /* Wait in infinite loop in case alt_main does return. */
alt_after_alt_main:
    br alt_after_alt_main
   401f8:	003fff06 	br	401f8 <_exit+0xfffa01ec>

000401fc <matrix_add>:
    float data[MAX_SIZE][MAX_SIZE];
} Matrix;

//矩阵加法
void matrix_add(const Matrix *A, const Matrix *B, Matrix *C)
{
   401fc:	defff304 	addi	sp,sp,-52
   40200:	dfc00c15 	stw	ra,48(sp)
   40204:	df000b15 	stw	fp,44(sp)
   40208:	dc400a15 	stw	r17,40(sp)
   4020c:	dc000915 	stw	r16,36(sp)
   40210:	df000b04 	addi	fp,sp,44
   40214:	e13ffb15 	stw	r4,-20(fp)
   40218:	e17ffc15 	stw	r5,-16(fp)
   4021c:	e1bffd15 	stw	r6,-12(fp)
	C->rows = MAX(A->rows,B->rows);
   40220:	e0bffc17 	ldw	r2,-16(fp)
   40224:	11000017 	ldw	r4,0(r2)
   40228:	e0bffb17 	ldw	r2,-20(fp)
   4022c:	10c00017 	ldw	r3,0(r2)
   40230:	2005883a 	mov	r2,r4
   40234:	10c0010e 	bge	r2,r3,4023c <matrix_add+0x40>
   40238:	1805883a 	mov	r2,r3
   4023c:	e0fffd17 	ldw	r3,-12(fp)
   40240:	18800015 	stw	r2,0(r3)
	C->cols = MAX(A->cols,B->cols);
   40244:	e0bffc17 	ldw	r2,-16(fp)
   40248:	11000117 	ldw	r4,4(r2)
   4024c:	e0bffb17 	ldw	r2,-20(fp)
   40250:	10c00117 	ldw	r3,4(r2)
   40254:	2005883a 	mov	r2,r4
   40258:	10c0010e 	bge	r2,r3,40260 <matrix_add+0x64>
   4025c:	1805883a 	mov	r2,r3
   40260:	e0fffd17 	ldw	r3,-12(fp)
   40264:	18800115 	stw	r2,4(r3)
	for (int i = 0; i < C->rows; i++)
   40268:	e03ff515 	stw	zero,-44(fp)
   4026c:	00001906 	br	402d4 <matrix_add+0xd8>
		for (int j = 0; j < C->cols; j++)
   40270:	e03ff615 	stw	zero,-40(fp)
   40274:	00001006 	br	402b8 <matrix_add+0xbc>
			C->data[i][j]=0;
   40278:	e43ffd17 	ldw	r16,-12(fp)
   4027c:	e0bff517 	ldw	r2,-44(fp)
   40280:	01400504 	movi	r5,20
   40284:	1009883a 	mov	r4,r2
   40288:	00451400 	call	45140 <__mulsi3>
   4028c:	1007883a 	mov	r3,r2
   40290:	e0bff617 	ldw	r2,-40(fp)
   40294:	1885883a 	add	r2,r3,r2
   40298:	10800084 	addi	r2,r2,2
   4029c:	1085883a 	add	r2,r2,r2
   402a0:	1085883a 	add	r2,r2,r2
   402a4:	8085883a 	add	r2,r16,r2
   402a8:	10000015 	stw	zero,0(r2)
void matrix_add(const Matrix *A, const Matrix *B, Matrix *C)
{
	C->rows = MAX(A->rows,B->rows);
	C->cols = MAX(A->cols,B->cols);
	for (int i = 0; i < C->rows; i++)
		for (int j = 0; j < C->cols; j++)
   402ac:	e0bff617 	ldw	r2,-40(fp)
   402b0:	10800044 	addi	r2,r2,1
   402b4:	e0bff615 	stw	r2,-40(fp)
   402b8:	e0bffd17 	ldw	r2,-12(fp)
   402bc:	10800117 	ldw	r2,4(r2)
   402c0:	e0fff617 	ldw	r3,-40(fp)
   402c4:	18bfec16 	blt	r3,r2,40278 <_exit+0xfffa026c>
//矩阵加法
void matrix_add(const Matrix *A, const Matrix *B, Matrix *C)
{
	C->rows = MAX(A->rows,B->rows);
	C->cols = MAX(A->cols,B->cols);
	for (int i = 0; i < C->rows; i++)
   402c8:	e0bff517 	ldw	r2,-44(fp)
   402cc:	10800044 	addi	r2,r2,1
   402d0:	e0bff515 	stw	r2,-44(fp)
   402d4:	e0bffd17 	ldw	r2,-12(fp)
   402d8:	10800017 	ldw	r2,0(r2)
   402dc:	e0fff517 	ldw	r3,-44(fp)
   402e0:	18bfe316 	blt	r3,r2,40270 <_exit+0xfffa0264>
		for (int j = 0; j < C->cols; j++)
			C->data[i][j]=0;
	for (int i = 0; i < A->rows; i++)
   402e4:	e03ff715 	stw	zero,-36(fp)
   402e8:	00003806 	br	403cc <matrix_add+0x1d0>
		for (int j = 0; j < A->cols; j++)
   402ec:	e03ff815 	stw	zero,-32(fp)
   402f0:	00002f06 	br	403b0 <matrix_add+0x1b4>
			C->data[i][j]=C->data[i][j]+A->data[i][j];
   402f4:	e43ffd17 	ldw	r16,-12(fp)
   402f8:	e0bff717 	ldw	r2,-36(fp)
   402fc:	01400504 	movi	r5,20
   40300:	1009883a 	mov	r4,r2
   40304:	00451400 	call	45140 <__mulsi3>
   40308:	1007883a 	mov	r3,r2
   4030c:	e0bff817 	ldw	r2,-32(fp)
   40310:	1885883a 	add	r2,r3,r2
   40314:	10800084 	addi	r2,r2,2
   40318:	1085883a 	add	r2,r2,r2
   4031c:	1085883a 	add	r2,r2,r2
   40320:	8085883a 	add	r2,r16,r2
   40324:	14400017 	ldw	r17,0(r2)
   40328:	e43ffb17 	ldw	r16,-20(fp)
   4032c:	e0bff717 	ldw	r2,-36(fp)
   40330:	01400504 	movi	r5,20
   40334:	1009883a 	mov	r4,r2
   40338:	00451400 	call	45140 <__mulsi3>
   4033c:	1007883a 	mov	r3,r2
   40340:	e0bff817 	ldw	r2,-32(fp)
   40344:	1885883a 	add	r2,r3,r2
   40348:	10800084 	addi	r2,r2,2
   4034c:	1085883a 	add	r2,r2,r2
   40350:	1085883a 	add	r2,r2,r2
   40354:	8085883a 	add	r2,r16,r2
   40358:	10c00017 	ldw	r3,0(r2)
   4035c:	180b883a 	mov	r5,r3
   40360:	8809883a 	mov	r4,r17
   40364:	00451680 	call	45168 <__addsf3>
   40368:	1007883a 	mov	r3,r2
   4036c:	1823883a 	mov	r17,r3
   40370:	e43ffd17 	ldw	r16,-12(fp)
   40374:	e0bff717 	ldw	r2,-36(fp)
   40378:	01400504 	movi	r5,20
   4037c:	1009883a 	mov	r4,r2
   40380:	00451400 	call	45140 <__mulsi3>
   40384:	1007883a 	mov	r3,r2
   40388:	e0bff817 	ldw	r2,-32(fp)
   4038c:	1885883a 	add	r2,r3,r2
   40390:	10800084 	addi	r2,r2,2
   40394:	1085883a 	add	r2,r2,r2
   40398:	1085883a 	add	r2,r2,r2
   4039c:	8085883a 	add	r2,r16,r2
   403a0:	14400015 	stw	r17,0(r2)
	C->cols = MAX(A->cols,B->cols);
	for (int i = 0; i < C->rows; i++)
		for (int j = 0; j < C->cols; j++)
			C->data[i][j]=0;
	for (int i = 0; i < A->rows; i++)
		for (int j = 0; j < A->cols; j++)
   403a4:	e0bff817 	ldw	r2,-32(fp)
   403a8:	10800044 	addi	r2,r2,1
   403ac:	e0bff815 	stw	r2,-32(fp)
   403b0:	e0bffb17 	ldw	r2,-20(fp)
   403b4:	10800117 	ldw	r2,4(r2)
   403b8:	e0fff817 	ldw	r3,-32(fp)
   403bc:	18bfcd16 	blt	r3,r2,402f4 <_exit+0xfffa02e8>
	C->rows = MAX(A->rows,B->rows);
	C->cols = MAX(A->cols,B->cols);
	for (int i = 0; i < C->rows; i++)
		for (int j = 0; j < C->cols; j++)
			C->data[i][j]=0;
	for (int i = 0; i < A->rows; i++)
   403c0:	e0bff717 	ldw	r2,-36(fp)
   403c4:	10800044 	addi	r2,r2,1
   403c8:	e0bff715 	stw	r2,-36(fp)
   403cc:	e0bffb17 	ldw	r2,-20(fp)
   403d0:	10800017 	ldw	r2,0(r2)
   403d4:	e0fff717 	ldw	r3,-36(fp)
   403d8:	18bfc416 	blt	r3,r2,402ec <_exit+0xfffa02e0>
		for (int j = 0; j < A->cols; j++)
			C->data[i][j]=C->data[i][j]+A->data[i][j];
	for (int i = 0; i < B->rows; i++)
   403dc:	e03ff915 	stw	zero,-28(fp)
   403e0:	00003806 	br	404c4 <matrix_add+0x2c8>
		for (int j = 0; j < B->cols; j++)
   403e4:	e03ffa15 	stw	zero,-24(fp)
   403e8:	00002f06 	br	404a8 <matrix_add+0x2ac>
			C->data[i][j]=C->data[i][j]+B->data[i][j];
   403ec:	e43ffd17 	ldw	r16,-12(fp)
   403f0:	e0bff917 	ldw	r2,-28(fp)
   403f4:	01400504 	movi	r5,20
   403f8:	1009883a 	mov	r4,r2
   403fc:	00451400 	call	45140 <__mulsi3>
   40400:	1007883a 	mov	r3,r2
   40404:	e0bffa17 	ldw	r2,-24(fp)
   40408:	1885883a 	add	r2,r3,r2
   4040c:	10800084 	addi	r2,r2,2
   40410:	1085883a 	add	r2,r2,r2
   40414:	1085883a 	add	r2,r2,r2
   40418:	8085883a 	add	r2,r16,r2
   4041c:	14400017 	ldw	r17,0(r2)
   40420:	e43ffc17 	ldw	r16,-16(fp)
   40424:	e0bff917 	ldw	r2,-28(fp)
   40428:	01400504 	movi	r5,20
   4042c:	1009883a 	mov	r4,r2
   40430:	00451400 	call	45140 <__mulsi3>
   40434:	1007883a 	mov	r3,r2
   40438:	e0bffa17 	ldw	r2,-24(fp)
   4043c:	1885883a 	add	r2,r3,r2
   40440:	10800084 	addi	r2,r2,2
   40444:	1085883a 	add	r2,r2,r2
   40448:	1085883a 	add	r2,r2,r2
   4044c:	8085883a 	add	r2,r16,r2
   40450:	10c00017 	ldw	r3,0(r2)
   40454:	180b883a 	mov	r5,r3
   40458:	8809883a 	mov	r4,r17
   4045c:	00451680 	call	45168 <__addsf3>
   40460:	1007883a 	mov	r3,r2
   40464:	1823883a 	mov	r17,r3
   40468:	e43ffd17 	ldw	r16,-12(fp)
   4046c:	e0bff917 	ldw	r2,-28(fp)
   40470:	01400504 	movi	r5,20
   40474:	1009883a 	mov	r4,r2
   40478:	00451400 	call	45140 <__mulsi3>
   4047c:	1007883a 	mov	r3,r2
   40480:	e0bffa17 	ldw	r2,-24(fp)
   40484:	1885883a 	add	r2,r3,r2
   40488:	10800084 	addi	r2,r2,2
   4048c:	1085883a 	add	r2,r2,r2
   40490:	1085883a 	add	r2,r2,r2
   40494:	8085883a 	add	r2,r16,r2
   40498:	14400015 	stw	r17,0(r2)
			C->data[i][j]=0;
	for (int i = 0; i < A->rows; i++)
		for (int j = 0; j < A->cols; j++)
			C->data[i][j]=C->data[i][j]+A->data[i][j];
	for (int i = 0; i < B->rows; i++)
		for (int j = 0; j < B->cols; j++)
   4049c:	e0bffa17 	ldw	r2,-24(fp)
   404a0:	10800044 	addi	r2,r2,1
   404a4:	e0bffa15 	stw	r2,-24(fp)
   404a8:	e0bffc17 	ldw	r2,-16(fp)
   404ac:	10800117 	ldw	r2,4(r2)
   404b0:	e0fffa17 	ldw	r3,-24(fp)
   404b4:	18bfcd16 	blt	r3,r2,403ec <_exit+0xfffa03e0>
		for (int j = 0; j < C->cols; j++)
			C->data[i][j]=0;
	for (int i = 0; i < A->rows; i++)
		for (int j = 0; j < A->cols; j++)
			C->data[i][j]=C->data[i][j]+A->data[i][j];
	for (int i = 0; i < B->rows; i++)
   404b8:	e0bff917 	ldw	r2,-28(fp)
   404bc:	10800044 	addi	r2,r2,1
   404c0:	e0bff915 	stw	r2,-28(fp)
   404c4:	e0bffc17 	ldw	r2,-16(fp)
   404c8:	10800017 	ldw	r2,0(r2)
   404cc:	e0fff917 	ldw	r3,-28(fp)
   404d0:	18bfc416 	blt	r3,r2,403e4 <_exit+0xfffa03d8>
		for (int j = 0; j < B->cols; j++)
			C->data[i][j]=C->data[i][j]+B->data[i][j];
}
   404d4:	0001883a 	nop
   404d8:	e6fffe04 	addi	sp,fp,-8
   404dc:	dfc00317 	ldw	ra,12(sp)
   404e0:	df000217 	ldw	fp,8(sp)
   404e4:	dc400117 	ldw	r17,4(sp)
   404e8:	dc000017 	ldw	r16,0(sp)
   404ec:	dec00404 	addi	sp,sp,16
   404f0:	f800283a 	ret

000404f4 <matrix_sub>:

//矩阵减法
void matrix_sub(const Matrix *A, const Matrix *B, Matrix *C)
{
   404f4:	defff304 	addi	sp,sp,-52
   404f8:	dfc00c15 	stw	ra,48(sp)
   404fc:	df000b15 	stw	fp,44(sp)
   40500:	dc400a15 	stw	r17,40(sp)
   40504:	dc000915 	stw	r16,36(sp)
   40508:	df000b04 	addi	fp,sp,44
   4050c:	e13ffb15 	stw	r4,-20(fp)
   40510:	e17ffc15 	stw	r5,-16(fp)
   40514:	e1bffd15 	stw	r6,-12(fp)
	C->rows = MAX(A->rows,B->rows);
   40518:	e0bffc17 	ldw	r2,-16(fp)
   4051c:	11000017 	ldw	r4,0(r2)
   40520:	e0bffb17 	ldw	r2,-20(fp)
   40524:	10c00017 	ldw	r3,0(r2)
   40528:	2005883a 	mov	r2,r4
   4052c:	10c0010e 	bge	r2,r3,40534 <matrix_sub+0x40>
   40530:	1805883a 	mov	r2,r3
   40534:	e0fffd17 	ldw	r3,-12(fp)
   40538:	18800015 	stw	r2,0(r3)
	C->cols = MAX(A->cols,B->cols);
   4053c:	e0bffc17 	ldw	r2,-16(fp)
   40540:	11000117 	ldw	r4,4(r2)
   40544:	e0bffb17 	ldw	r2,-20(fp)
   40548:	10c00117 	ldw	r3,4(r2)
   4054c:	2005883a 	mov	r2,r4
   40550:	10c0010e 	bge	r2,r3,40558 <matrix_sub+0x64>
   40554:	1805883a 	mov	r2,r3
   40558:	e0fffd17 	ldw	r3,-12(fp)
   4055c:	18800115 	stw	r2,4(r3)
	for (int i = 0; i < C->rows; i++)
   40560:	e03ff515 	stw	zero,-44(fp)
   40564:	00001906 	br	405cc <matrix_sub+0xd8>
		for (int j = 0; j < C->cols; j++)
   40568:	e03ff615 	stw	zero,-40(fp)
   4056c:	00001006 	br	405b0 <matrix_sub+0xbc>
			C->data[i][j]=0;
   40570:	e43ffd17 	ldw	r16,-12(fp)
   40574:	e0bff517 	ldw	r2,-44(fp)
   40578:	01400504 	movi	r5,20
   4057c:	1009883a 	mov	r4,r2
   40580:	00451400 	call	45140 <__mulsi3>
   40584:	1007883a 	mov	r3,r2
   40588:	e0bff617 	ldw	r2,-40(fp)
   4058c:	1885883a 	add	r2,r3,r2
   40590:	10800084 	addi	r2,r2,2
   40594:	1085883a 	add	r2,r2,r2
   40598:	1085883a 	add	r2,r2,r2
   4059c:	8085883a 	add	r2,r16,r2
   405a0:	10000015 	stw	zero,0(r2)
void matrix_sub(const Matrix *A, const Matrix *B, Matrix *C)
{
	C->rows = MAX(A->rows,B->rows);
	C->cols = MAX(A->cols,B->cols);
	for (int i = 0; i < C->rows; i++)
		for (int j = 0; j < C->cols; j++)
   405a4:	e0bff617 	ldw	r2,-40(fp)
   405a8:	10800044 	addi	r2,r2,1
   405ac:	e0bff615 	stw	r2,-40(fp)
   405b0:	e0bffd17 	ldw	r2,-12(fp)
   405b4:	10800117 	ldw	r2,4(r2)
   405b8:	e0fff617 	ldw	r3,-40(fp)
   405bc:	18bfec16 	blt	r3,r2,40570 <_exit+0xfffa0564>
//矩阵减法
void matrix_sub(const Matrix *A, const Matrix *B, Matrix *C)
{
	C->rows = MAX(A->rows,B->rows);
	C->cols = MAX(A->cols,B->cols);
	for (int i = 0; i < C->rows; i++)
   405c0:	e0bff517 	ldw	r2,-44(fp)
   405c4:	10800044 	addi	r2,r2,1
   405c8:	e0bff515 	stw	r2,-44(fp)
   405cc:	e0bffd17 	ldw	r2,-12(fp)
   405d0:	10800017 	ldw	r2,0(r2)
   405d4:	e0fff517 	ldw	r3,-44(fp)
   405d8:	18bfe316 	blt	r3,r2,40568 <_exit+0xfffa055c>
		for (int j = 0; j < C->cols; j++)
			C->data[i][j]=0;
	for (int i = 0; i < A->rows; i++)
   405dc:	e03ff715 	stw	zero,-36(fp)
   405e0:	00003806 	br	406c4 <matrix_sub+0x1d0>
		for (int j = 0; j < A->cols; j++)
   405e4:	e03ff815 	stw	zero,-32(fp)
   405e8:	00002f06 	br	406a8 <matrix_sub+0x1b4>
			C->data[i][j]=C->data[i][j]+A->data[i][j];
   405ec:	e43ffd17 	ldw	r16,-12(fp)
   405f0:	e0bff717 	ldw	r2,-36(fp)
   405f4:	01400504 	movi	r5,20
   405f8:	1009883a 	mov	r4,r2
   405fc:	00451400 	call	45140 <__mulsi3>
   40600:	1007883a 	mov	r3,r2
   40604:	e0bff817 	ldw	r2,-32(fp)
   40608:	1885883a 	add	r2,r3,r2
   4060c:	10800084 	addi	r2,r2,2
   40610:	1085883a 	add	r2,r2,r2
   40614:	1085883a 	add	r2,r2,r2
   40618:	8085883a 	add	r2,r16,r2
   4061c:	14400017 	ldw	r17,0(r2)
   40620:	e43ffb17 	ldw	r16,-20(fp)
   40624:	e0bff717 	ldw	r2,-36(fp)
   40628:	01400504 	movi	r5,20
   4062c:	1009883a 	mov	r4,r2
   40630:	00451400 	call	45140 <__mulsi3>
   40634:	1007883a 	mov	r3,r2
   40638:	e0bff817 	ldw	r2,-32(fp)
   4063c:	1885883a 	add	r2,r3,r2
   40640:	10800084 	addi	r2,r2,2
   40644:	1085883a 	add	r2,r2,r2
   40648:	1085883a 	add	r2,r2,r2
   4064c:	8085883a 	add	r2,r16,r2
   40650:	10c00017 	ldw	r3,0(r2)
   40654:	180b883a 	mov	r5,r3
   40658:	8809883a 	mov	r4,r17
   4065c:	00451680 	call	45168 <__addsf3>
   40660:	1007883a 	mov	r3,r2
   40664:	1823883a 	mov	r17,r3
   40668:	e43ffd17 	ldw	r16,-12(fp)
   4066c:	e0bff717 	ldw	r2,-36(fp)
   40670:	01400504 	movi	r5,20
   40674:	1009883a 	mov	r4,r2
   40678:	00451400 	call	45140 <__mulsi3>
   4067c:	1007883a 	mov	r3,r2
   40680:	e0bff817 	ldw	r2,-32(fp)
   40684:	1885883a 	add	r2,r3,r2
   40688:	10800084 	addi	r2,r2,2
   4068c:	1085883a 	add	r2,r2,r2
   40690:	1085883a 	add	r2,r2,r2
   40694:	8085883a 	add	r2,r16,r2
   40698:	14400015 	stw	r17,0(r2)
	C->cols = MAX(A->cols,B->cols);
	for (int i = 0; i < C->rows; i++)
		for (int j = 0; j < C->cols; j++)
			C->data[i][j]=0;
	for (int i = 0; i < A->rows; i++)
		for (int j = 0; j < A->cols; j++)
   4069c:	e0bff817 	ldw	r2,-32(fp)
   406a0:	10800044 	addi	r2,r2,1
   406a4:	e0bff815 	stw	r2,-32(fp)
   406a8:	e0bffb17 	ldw	r2,-20(fp)
   406ac:	10800117 	ldw	r2,4(r2)
   406b0:	e0fff817 	ldw	r3,-32(fp)
   406b4:	18bfcd16 	blt	r3,r2,405ec <_exit+0xfffa05e0>
	C->rows = MAX(A->rows,B->rows);
	C->cols = MAX(A->cols,B->cols);
	for (int i = 0; i < C->rows; i++)
		for (int j = 0; j < C->cols; j++)
			C->data[i][j]=0;
	for (int i = 0; i < A->rows; i++)
   406b8:	e0bff717 	ldw	r2,-36(fp)
   406bc:	10800044 	addi	r2,r2,1
   406c0:	e0bff715 	stw	r2,-36(fp)
   406c4:	e0bffb17 	ldw	r2,-20(fp)
   406c8:	10800017 	ldw	r2,0(r2)
   406cc:	e0fff717 	ldw	r3,-36(fp)
   406d0:	18bfc416 	blt	r3,r2,405e4 <_exit+0xfffa05d8>
		for (int j = 0; j < A->cols; j++)
			C->data[i][j]=C->data[i][j]+A->data[i][j];
	for (int i = 0; i < B->rows; i++)
   406d4:	e03ff915 	stw	zero,-28(fp)
   406d8:	00003806 	br	407bc <matrix_sub+0x2c8>
		for (int j = 0; j < B->cols; j++)
   406dc:	e03ffa15 	stw	zero,-24(fp)
   406e0:	00002f06 	br	407a0 <matrix_sub+0x2ac>
			C->data[i][j]=C->data[i][j]-B->data[i][j];
   406e4:	e43ffd17 	ldw	r16,-12(fp)
   406e8:	e0bff917 	ldw	r2,-28(fp)
   406ec:	01400504 	movi	r5,20
   406f0:	1009883a 	mov	r4,r2
   406f4:	00451400 	call	45140 <__mulsi3>
   406f8:	1007883a 	mov	r3,r2
   406fc:	e0bffa17 	ldw	r2,-24(fp)
   40700:	1885883a 	add	r2,r3,r2
   40704:	10800084 	addi	r2,r2,2
   40708:	1085883a 	add	r2,r2,r2
   4070c:	1085883a 	add	r2,r2,r2
   40710:	8085883a 	add	r2,r16,r2
   40714:	14400017 	ldw	r17,0(r2)
   40718:	e43ffc17 	ldw	r16,-16(fp)
   4071c:	e0bff917 	ldw	r2,-28(fp)
   40720:	01400504 	movi	r5,20
   40724:	1009883a 	mov	r4,r2
   40728:	00451400 	call	45140 <__mulsi3>
   4072c:	1007883a 	mov	r3,r2
   40730:	e0bffa17 	ldw	r2,-24(fp)
   40734:	1885883a 	add	r2,r3,r2
   40738:	10800084 	addi	r2,r2,2
   4073c:	1085883a 	add	r2,r2,r2
   40740:	1085883a 	add	r2,r2,r2
   40744:	8085883a 	add	r2,r16,r2
   40748:	10c00017 	ldw	r3,0(r2)
   4074c:	180b883a 	mov	r5,r3
   40750:	8809883a 	mov	r4,r17
   40754:	004609c0 	call	4609c <__subsf3>
   40758:	1007883a 	mov	r3,r2
   4075c:	1823883a 	mov	r17,r3
   40760:	e43ffd17 	ldw	r16,-12(fp)
   40764:	e0bff917 	ldw	r2,-28(fp)
   40768:	01400504 	movi	r5,20
   4076c:	1009883a 	mov	r4,r2
   40770:	00451400 	call	45140 <__mulsi3>
   40774:	1007883a 	mov	r3,r2
   40778:	e0bffa17 	ldw	r2,-24(fp)
   4077c:	1885883a 	add	r2,r3,r2
   40780:	10800084 	addi	r2,r2,2
   40784:	1085883a 	add	r2,r2,r2
   40788:	1085883a 	add	r2,r2,r2
   4078c:	8085883a 	add	r2,r16,r2
   40790:	14400015 	stw	r17,0(r2)
			C->data[i][j]=0;
	for (int i = 0; i < A->rows; i++)
		for (int j = 0; j < A->cols; j++)
			C->data[i][j]=C->data[i][j]+A->data[i][j];
	for (int i = 0; i < B->rows; i++)
		for (int j = 0; j < B->cols; j++)
   40794:	e0bffa17 	ldw	r2,-24(fp)
   40798:	10800044 	addi	r2,r2,1
   4079c:	e0bffa15 	stw	r2,-24(fp)
   407a0:	e0bffc17 	ldw	r2,-16(fp)
   407a4:	10800117 	ldw	r2,4(r2)
   407a8:	e0fffa17 	ldw	r3,-24(fp)
   407ac:	18bfcd16 	blt	r3,r2,406e4 <_exit+0xfffa06d8>
		for (int j = 0; j < C->cols; j++)
			C->data[i][j]=0;
	for (int i = 0; i < A->rows; i++)
		for (int j = 0; j < A->cols; j++)
			C->data[i][j]=C->data[i][j]+A->data[i][j];
	for (int i = 0; i < B->rows; i++)
   407b0:	e0bff917 	ldw	r2,-28(fp)
   407b4:	10800044 	addi	r2,r2,1
   407b8:	e0bff915 	stw	r2,-28(fp)
   407bc:	e0bffc17 	ldw	r2,-16(fp)
   407c0:	10800017 	ldw	r2,0(r2)
   407c4:	e0fff917 	ldw	r3,-28(fp)
   407c8:	18bfc416 	blt	r3,r2,406dc <_exit+0xfffa06d0>
		for (int j = 0; j < B->cols; j++)
			C->data[i][j]=C->data[i][j]-B->data[i][j];
}
   407cc:	0001883a 	nop
   407d0:	e6fffe04 	addi	sp,fp,-8
   407d4:	dfc00317 	ldw	ra,12(sp)
   407d8:	df000217 	ldw	fp,8(sp)
   407dc:	dc400117 	ldw	r17,4(sp)
   407e0:	dc000017 	ldw	r16,0(sp)
   407e4:	dec00404 	addi	sp,sp,16
   407e8:	f800283a 	ret

000407ec <matrix_multiply>:

//矩阵乘法
void matrix_multiply(const Matrix *A, const Matrix *B, Matrix *C)
{
   407ec:	defff504 	addi	sp,sp,-44
   407f0:	dfc00a15 	stw	ra,40(sp)
   407f4:	df000915 	stw	fp,36(sp)
   407f8:	dc800815 	stw	r18,32(sp)
   407fc:	dc400715 	stw	r17,28(sp)
   40800:	dc000615 	stw	r16,24(sp)
   40804:	df000904 	addi	fp,sp,36
   40808:	e13ffa15 	stw	r4,-24(fp)
   4080c:	e17ffb15 	stw	r5,-20(fp)
   40810:	e1bffc15 	stw	r6,-16(fp)
    if (A->cols != B->rows) mul_flag=0;
   40814:	e0bffa17 	ldw	r2,-24(fp)
   40818:	10c00117 	ldw	r3,4(r2)
   4081c:	e0bffb17 	ldw	r2,-20(fp)
   40820:	10800017 	ldw	r2,0(r2)
   40824:	18800226 	beq	r3,r2,40830 <matrix_multiply+0x44>
   40828:	d0272f05 	stb	zero,-25412(gp)
   4082c:	00000206 	br	40838 <matrix_multiply+0x4c>
    else mul_flag=1;
   40830:	00800044 	movi	r2,1
   40834:	d0a72f05 	stb	r2,-25412(gp)

    if(mul_flag==1)
   40838:	d0a72f03 	ldbu	r2,-25412(gp)
   4083c:	10803fcc 	andi	r2,r2,255
   40840:	10800058 	cmpnei	r2,r2,1
   40844:	10006e1e 	bne	r2,zero,40a00 <matrix_multiply+0x214>
    {
		C->rows = A->rows;
   40848:	e0bffa17 	ldw	r2,-24(fp)
   4084c:	10c00017 	ldw	r3,0(r2)
   40850:	e0bffc17 	ldw	r2,-16(fp)
   40854:	10c00015 	stw	r3,0(r2)
		C->cols = B->cols;
   40858:	e0bffb17 	ldw	r2,-20(fp)
   4085c:	10c00117 	ldw	r3,4(r2)
   40860:	e0bffc17 	ldw	r2,-16(fp)
   40864:	10c00115 	stw	r3,4(r2)

		for (int i = 0; i < A->rows; i++)
   40868:	e03ff715 	stw	zero,-36(fp)
   4086c:	00006006 	br	409f0 <matrix_multiply+0x204>
		{
			for (int j = 0; j < B->cols; j++)
   40870:	e03ff815 	stw	zero,-32(fp)
   40874:	00005706 	br	409d4 <matrix_multiply+0x1e8>
			{
				C->data[i][j] = 0;
   40878:	e43ffc17 	ldw	r16,-16(fp)
   4087c:	e0bff717 	ldw	r2,-36(fp)
   40880:	01400504 	movi	r5,20
   40884:	1009883a 	mov	r4,r2
   40888:	00451400 	call	45140 <__mulsi3>
   4088c:	1007883a 	mov	r3,r2
   40890:	e0bff817 	ldw	r2,-32(fp)
   40894:	1885883a 	add	r2,r3,r2
   40898:	10800084 	addi	r2,r2,2
   4089c:	1085883a 	add	r2,r2,r2
   408a0:	1085883a 	add	r2,r2,r2
   408a4:	8085883a 	add	r2,r16,r2
   408a8:	10000015 	stw	zero,0(r2)
				for (int k = 0; k < A->cols; k++)
   408ac:	e03ff915 	stw	zero,-28(fp)
   408b0:	00004106 	br	409b8 <matrix_multiply+0x1cc>
				{
					C->data[i][j] += A->data[i][k] * B->data[k][j];
   408b4:	e43ffc17 	ldw	r16,-16(fp)
   408b8:	e0bff717 	ldw	r2,-36(fp)
   408bc:	01400504 	movi	r5,20
   408c0:	1009883a 	mov	r4,r2
   408c4:	00451400 	call	45140 <__mulsi3>
   408c8:	1007883a 	mov	r3,r2
   408cc:	e0bff817 	ldw	r2,-32(fp)
   408d0:	1885883a 	add	r2,r3,r2
   408d4:	10800084 	addi	r2,r2,2
   408d8:	1085883a 	add	r2,r2,r2
   408dc:	1085883a 	add	r2,r2,r2
   408e0:	8085883a 	add	r2,r16,r2
   408e4:	14400017 	ldw	r17,0(r2)
   408e8:	e43ffa17 	ldw	r16,-24(fp)
   408ec:	e0bff717 	ldw	r2,-36(fp)
   408f0:	01400504 	movi	r5,20
   408f4:	1009883a 	mov	r4,r2
   408f8:	00451400 	call	45140 <__mulsi3>
   408fc:	1007883a 	mov	r3,r2
   40900:	e0bff917 	ldw	r2,-28(fp)
   40904:	1885883a 	add	r2,r3,r2
   40908:	10800084 	addi	r2,r2,2
   4090c:	1085883a 	add	r2,r2,r2
   40910:	1085883a 	add	r2,r2,r2
   40914:	8085883a 	add	r2,r16,r2
   40918:	14800017 	ldw	r18,0(r2)
   4091c:	e43ffb17 	ldw	r16,-20(fp)
   40920:	e0bff917 	ldw	r2,-28(fp)
   40924:	01400504 	movi	r5,20
   40928:	1009883a 	mov	r4,r2
   4092c:	00451400 	call	45140 <__mulsi3>
   40930:	1007883a 	mov	r3,r2
   40934:	e0bff817 	ldw	r2,-32(fp)
   40938:	1885883a 	add	r2,r3,r2
   4093c:	10800084 	addi	r2,r2,2
   40940:	1085883a 	add	r2,r2,r2
   40944:	1085883a 	add	r2,r2,r2
   40948:	8085883a 	add	r2,r16,r2
   4094c:	10c00017 	ldw	r3,0(r2)
   40950:	180b883a 	mov	r5,r3
   40954:	9009883a 	mov	r4,r18
   40958:	0045c6c0 	call	45c6c <__mulsf3>
   4095c:	1007883a 	mov	r3,r2
   40960:	1805883a 	mov	r2,r3
   40964:	100b883a 	mov	r5,r2
   40968:	8809883a 	mov	r4,r17
   4096c:	00451680 	call	45168 <__addsf3>
   40970:	1007883a 	mov	r3,r2
   40974:	1823883a 	mov	r17,r3
   40978:	e43ffc17 	ldw	r16,-16(fp)
   4097c:	e0bff717 	ldw	r2,-36(fp)
   40980:	01400504 	movi	r5,20
   40984:	1009883a 	mov	r4,r2
   40988:	00451400 	call	45140 <__mulsi3>
   4098c:	1007883a 	mov	r3,r2
   40990:	e0bff817 	ldw	r2,-32(fp)
   40994:	1885883a 	add	r2,r3,r2
   40998:	10800084 	addi	r2,r2,2
   4099c:	1085883a 	add	r2,r2,r2
   409a0:	1085883a 	add	r2,r2,r2
   409a4:	8085883a 	add	r2,r16,r2
   409a8:	14400015 	stw	r17,0(r2)
		for (int i = 0; i < A->rows; i++)
		{
			for (int j = 0; j < B->cols; j++)
			{
				C->data[i][j] = 0;
				for (int k = 0; k < A->cols; k++)
   409ac:	e0bff917 	ldw	r2,-28(fp)
   409b0:	10800044 	addi	r2,r2,1
   409b4:	e0bff915 	stw	r2,-28(fp)
   409b8:	e0bffa17 	ldw	r2,-24(fp)
   409bc:	10800117 	ldw	r2,4(r2)
   409c0:	e0fff917 	ldw	r3,-28(fp)
   409c4:	18bfbb16 	blt	r3,r2,408b4 <_exit+0xfffa08a8>
		C->rows = A->rows;
		C->cols = B->cols;

		for (int i = 0; i < A->rows; i++)
		{
			for (int j = 0; j < B->cols; j++)
   409c8:	e0bff817 	ldw	r2,-32(fp)
   409cc:	10800044 	addi	r2,r2,1
   409d0:	e0bff815 	stw	r2,-32(fp)
   409d4:	e0bffb17 	ldw	r2,-20(fp)
   409d8:	10800117 	ldw	r2,4(r2)
   409dc:	e0fff817 	ldw	r3,-32(fp)
   409e0:	18bfa516 	blt	r3,r2,40878 <_exit+0xfffa086c>
    if(mul_flag==1)
    {
		C->rows = A->rows;
		C->cols = B->cols;

		for (int i = 0; i < A->rows; i++)
   409e4:	e0bff717 	ldw	r2,-36(fp)
   409e8:	10800044 	addi	r2,r2,1
   409ec:	e0bff715 	stw	r2,-36(fp)
   409f0:	e0bffa17 	ldw	r2,-24(fp)
   409f4:	10800017 	ldw	r2,0(r2)
   409f8:	e0fff717 	ldw	r3,-36(fp)
   409fc:	18bf9c16 	blt	r3,r2,40870 <_exit+0xfffa0864>
					C->data[i][j] += A->data[i][k] * B->data[k][j];
				}
			}
		}
    }
}
   40a00:	0001883a 	nop
   40a04:	e6fffd04 	addi	sp,fp,-12
   40a08:	dfc00417 	ldw	ra,16(sp)
   40a0c:	df000317 	ldw	fp,12(sp)
   40a10:	dc800217 	ldw	r18,8(sp)
   40a14:	dc400117 	ldw	r17,4(sp)
   40a18:	dc000017 	ldw	r16,0(sp)
   40a1c:	dec00504 	addi	sp,sp,20
   40a20:	f800283a 	ret

00040a24 <matrix_inverse>:

//矩阵求逆
int matrix_inverse(const Matrix *input, Matrix *output)
{
   40a24:	defccf04 	addi	sp,sp,-3268
   40a28:	dfc33015 	stw	ra,3264(sp)
   40a2c:	df032f15 	stw	fp,3260(sp)
   40a30:	dc432e15 	stw	r17,3256(sp)
   40a34:	dc032d15 	stw	r16,3252(sp)
   40a38:	df032f04 	addi	fp,sp,3260
   40a3c:	e13ffc15 	stw	r4,-16(fp)
   40a40:	e17ffd15 	stw	r5,-12(fp)
    if (input->rows != input->cols) return -1;
   40a44:	e0bffc17 	ldw	r2,-16(fp)
   40a48:	10c00017 	ldw	r3,0(r2)
   40a4c:	e0bffc17 	ldw	r2,-16(fp)
   40a50:	10800117 	ldw	r2,4(r2)
   40a54:	18800226 	beq	r3,r2,40a60 <matrix_inverse+0x3c>
   40a58:	00bfffc4 	movi	r2,-1
   40a5c:	00012306 	br	40eec <matrix_inverse+0x4c8>
    int n = input->rows;
   40a60:	e0bffc17 	ldw	r2,-16(fp)
   40a64:	10800017 	ldw	r2,0(r2)
   40a68:	e0bcd915 	stw	r2,-3228(fp)
    float mat[MAX_SIZE][2*MAX_SIZE] = {0};
   40a6c:	e0bcdc04 	addi	r2,fp,-3216
   40a70:	00c32004 	movi	r3,3200
   40a74:	180d883a 	mov	r6,r3
   40a78:	000b883a 	mov	r5,zero
   40a7c:	1009883a 	mov	r4,r2
   40a80:	0048fe40 	call	48fe4 <memset>

    // 构造增广矩阵 [I|A]
    for (int i = 0; i < n; i++)
   40a84:	e03cd115 	stw	zero,-3260(fp)
   40a88:	00003906 	br	40b70 <matrix_inverse+0x14c>
    {
        for (int j = 0; j < n; j++)
   40a8c:	e03cd215 	stw	zero,-3256(fp)
   40a90:	00003106 	br	40b58 <matrix_inverse+0x134>
        {
            mat[i][j] = input->data[i][j];
   40a94:	e43ffc17 	ldw	r16,-16(fp)
   40a98:	e0bcd117 	ldw	r2,-3260(fp)
   40a9c:	01400504 	movi	r5,20
   40aa0:	1009883a 	mov	r4,r2
   40aa4:	00451400 	call	45140 <__mulsi3>
   40aa8:	1007883a 	mov	r3,r2
   40aac:	e0bcd217 	ldw	r2,-3256(fp)
   40ab0:	1885883a 	add	r2,r3,r2
   40ab4:	10800084 	addi	r2,r2,2
   40ab8:	1085883a 	add	r2,r2,r2
   40abc:	1085883a 	add	r2,r2,r2
   40ac0:	8085883a 	add	r2,r16,r2
   40ac4:	14000017 	ldw	r16,0(r2)
   40ac8:	e0bcd117 	ldw	r2,-3260(fp)
   40acc:	01400a04 	movi	r5,40
   40ad0:	1009883a 	mov	r4,r2
   40ad4:	00451400 	call	45140 <__mulsi3>
   40ad8:	1007883a 	mov	r3,r2
   40adc:	e0bcd217 	ldw	r2,-3256(fp)
   40ae0:	1885883a 	add	r2,r3,r2
   40ae4:	1085883a 	add	r2,r2,r2
   40ae8:	1085883a 	add	r2,r2,r2
   40aec:	e0fcd104 	addi	r3,fp,-3260
   40af0:	1885883a 	add	r2,r3,r2
   40af4:	10800b04 	addi	r2,r2,44
   40af8:	14000015 	stw	r16,0(r2)
            mat[i][j + n] = (i == j) ? 1 : 0;
   40afc:	e0fcd217 	ldw	r3,-3256(fp)
   40b00:	e0bcd917 	ldw	r2,-3228(fp)
   40b04:	18a3883a 	add	r17,r3,r2
   40b08:	e0fcd117 	ldw	r3,-3260(fp)
   40b0c:	e0bcd217 	ldw	r2,-3256(fp)
   40b10:	1880021e 	bne	r3,r2,40b1c <matrix_inverse+0xf8>
   40b14:	040fe034 	movhi	r16,16256
   40b18:	00000106 	br	40b20 <matrix_inverse+0xfc>
   40b1c:	0021883a 	mov	r16,zero
   40b20:	e0bcd117 	ldw	r2,-3260(fp)
   40b24:	01400a04 	movi	r5,40
   40b28:	1009883a 	mov	r4,r2
   40b2c:	00451400 	call	45140 <__mulsi3>
   40b30:	1445883a 	add	r2,r2,r17
   40b34:	1085883a 	add	r2,r2,r2
   40b38:	1085883a 	add	r2,r2,r2
   40b3c:	e0fcd104 	addi	r3,fp,-3260
   40b40:	1885883a 	add	r2,r3,r2
   40b44:	10800b04 	addi	r2,r2,44
   40b48:	14000015 	stw	r16,0(r2)
    float mat[MAX_SIZE][2*MAX_SIZE] = {0};

    // 构造增广矩阵 [I|A]
    for (int i = 0; i < n; i++)
    {
        for (int j = 0; j < n; j++)
   40b4c:	e0bcd217 	ldw	r2,-3256(fp)
   40b50:	10800044 	addi	r2,r2,1
   40b54:	e0bcd215 	stw	r2,-3256(fp)
   40b58:	e0fcd217 	ldw	r3,-3256(fp)
   40b5c:	e0bcd917 	ldw	r2,-3228(fp)
   40b60:	18bfcc16 	blt	r3,r2,40a94 <_exit+0xfffa0a88>
    if (input->rows != input->cols) return -1;
    int n = input->rows;
    float mat[MAX_SIZE][2*MAX_SIZE] = {0};

    // 构造增广矩阵 [I|A]
    for (int i = 0; i < n; i++)
   40b64:	e0bcd117 	ldw	r2,-3260(fp)
   40b68:	10800044 	addi	r2,r2,1
   40b6c:	e0bcd115 	stw	r2,-3260(fp)
   40b70:	e0fcd117 	ldw	r3,-3260(fp)
   40b74:	e0bcd917 	ldw	r2,-3228(fp)
   40b78:	18bfc416 	blt	r3,r2,40a8c <_exit+0xfffa0a80>
            mat[i][j + n] = (i == j) ? 1 : 0;
        }
    }

    // 高斯消元
    for (int pivot = 0; pivot < n; pivot++)
   40b7c:	e03cd315 	stw	zero,-3252(fp)
   40b80:	0000a406 	br	40e14 <matrix_inverse+0x3f0>
    {
        if (fabs(mat[pivot][pivot]) < 1e-6) return -2; // 奇异矩阵
   40b84:	e0bcd317 	ldw	r2,-3252(fp)
   40b88:	01402904 	movi	r5,164
   40b8c:	1009883a 	mov	r4,r2
   40b90:	00451400 	call	45140 <__mulsi3>
   40b94:	e0fcd104 	addi	r3,fp,-3260
   40b98:	1885883a 	add	r2,r3,r2
   40b9c:	10800b04 	addi	r2,r2,44
   40ba0:	10c00017 	ldw	r3,0(r2)
   40ba4:	00a00034 	movhi	r2,32768
   40ba8:	10bfffc4 	addi	r2,r2,-1
   40bac:	1884703a 	and	r2,r3,r2
   40bb0:	1009883a 	mov	r4,r2
   40bb4:	0048cc80 	call	48cc8 <__extendsfdf2>
   40bb8:	1011883a 	mov	r8,r2
   40bbc:	1813883a 	mov	r9,r3
   40bc0:	01a82db4 	movhi	r6,41142
   40bc4:	31bb6344 	addi	r6,r6,-4723
   40bc8:	01cfac74 	movhi	r7,16049
   40bcc:	39f1bdc4 	addi	r7,r7,-14601
   40bd0:	4009883a 	mov	r4,r8
   40bd4:	480b883a 	mov	r5,r9
   40bd8:	0047a6c0 	call	47a6c <__ledf2>
   40bdc:	1000020e 	bge	r2,zero,40be8 <matrix_inverse+0x1c4>
   40be0:	00bfff84 	movi	r2,-2
   40be4:	0000c106 	br	40eec <matrix_inverse+0x4c8>

        // 归一化主行
        float scale = mat[pivot][pivot];
   40be8:	e0bcd317 	ldw	r2,-3252(fp)
   40bec:	01402904 	movi	r5,164
   40bf0:	1009883a 	mov	r4,r2
   40bf4:	00451400 	call	45140 <__mulsi3>
   40bf8:	e0fcd104 	addi	r3,fp,-3260
   40bfc:	1885883a 	add	r2,r3,r2
   40c00:	10800b04 	addi	r2,r2,44
   40c04:	10800017 	ldw	r2,0(r2)
   40c08:	e0bcda15 	stw	r2,-3224(fp)
        for (int j = pivot; j < 2*n; j++)
   40c0c:	e0bcd317 	ldw	r2,-3252(fp)
   40c10:	e0bcd415 	stw	r2,-3248(fp)
   40c14:	00002206 	br	40ca0 <matrix_inverse+0x27c>
        {
            mat[pivot][j] /= scale;
   40c18:	e0bcd317 	ldw	r2,-3252(fp)
   40c1c:	01400a04 	movi	r5,40
   40c20:	1009883a 	mov	r4,r2
   40c24:	00451400 	call	45140 <__mulsi3>
   40c28:	1007883a 	mov	r3,r2
   40c2c:	e0bcd417 	ldw	r2,-3248(fp)
   40c30:	1885883a 	add	r2,r3,r2
   40c34:	1085883a 	add	r2,r2,r2
   40c38:	1085883a 	add	r2,r2,r2
   40c3c:	e0fcd104 	addi	r3,fp,-3260
   40c40:	1885883a 	add	r2,r3,r2
   40c44:	10800b04 	addi	r2,r2,44
   40c48:	10c00017 	ldw	r3,0(r2)
   40c4c:	e17cda17 	ldw	r5,-3224(fp)
   40c50:	1809883a 	mov	r4,r3
   40c54:	00456300 	call	45630 <__divsf3>
   40c58:	1007883a 	mov	r3,r2
   40c5c:	1821883a 	mov	r16,r3
   40c60:	e0bcd317 	ldw	r2,-3252(fp)
   40c64:	01400a04 	movi	r5,40
   40c68:	1009883a 	mov	r4,r2
   40c6c:	00451400 	call	45140 <__mulsi3>
   40c70:	1007883a 	mov	r3,r2
   40c74:	e0bcd417 	ldw	r2,-3248(fp)
   40c78:	1885883a 	add	r2,r3,r2
   40c7c:	1085883a 	add	r2,r2,r2
   40c80:	1085883a 	add	r2,r2,r2
   40c84:	e0fcd104 	addi	r3,fp,-3260
   40c88:	1885883a 	add	r2,r3,r2
   40c8c:	10800b04 	addi	r2,r2,44
   40c90:	14000015 	stw	r16,0(r2)
    {
        if (fabs(mat[pivot][pivot]) < 1e-6) return -2; // 奇异矩阵

        // 归一化主行
        float scale = mat[pivot][pivot];
        for (int j = pivot; j < 2*n; j++)
   40c94:	e0bcd417 	ldw	r2,-3248(fp)
   40c98:	10800044 	addi	r2,r2,1
   40c9c:	e0bcd415 	stw	r2,-3248(fp)
   40ca0:	e0bcd917 	ldw	r2,-3228(fp)
   40ca4:	1085883a 	add	r2,r2,r2
   40ca8:	1007883a 	mov	r3,r2
   40cac:	e0bcd417 	ldw	r2,-3248(fp)
   40cb0:	10ffd916 	blt	r2,r3,40c18 <_exit+0xfffa0c0c>
        {
            mat[pivot][j] /= scale;
        }

        // 消去其他行
        for (int i = 0; i < n; i++)
   40cb4:	e03cd515 	stw	zero,-3244(fp)
   40cb8:	00005006 	br	40dfc <matrix_inverse+0x3d8>
        {
            if (i != pivot) {
   40cbc:	e0fcd517 	ldw	r3,-3244(fp)
   40cc0:	e0bcd317 	ldw	r2,-3252(fp)
   40cc4:	18804a26 	beq	r3,r2,40df0 <matrix_inverse+0x3cc>
                float factor = mat[i][pivot];
   40cc8:	e0bcd517 	ldw	r2,-3244(fp)
   40ccc:	01400a04 	movi	r5,40
   40cd0:	1009883a 	mov	r4,r2
   40cd4:	00451400 	call	45140 <__mulsi3>
   40cd8:	1007883a 	mov	r3,r2
   40cdc:	e0bcd317 	ldw	r2,-3252(fp)
   40ce0:	1885883a 	add	r2,r3,r2
   40ce4:	1085883a 	add	r2,r2,r2
   40ce8:	1085883a 	add	r2,r2,r2
   40cec:	e0fcd104 	addi	r3,fp,-3260
   40cf0:	1885883a 	add	r2,r3,r2
   40cf4:	10800b04 	addi	r2,r2,44
   40cf8:	10800017 	ldw	r2,0(r2)
   40cfc:	e0bcdb15 	stw	r2,-3220(fp)
                for (int j = pivot; j < 2*n; j++)
   40d00:	e0bcd317 	ldw	r2,-3252(fp)
   40d04:	e0bcd615 	stw	r2,-3240(fp)
   40d08:	00003406 	br	40ddc <matrix_inverse+0x3b8>
                {
                    mat[i][j] -= factor * mat[pivot][j];
   40d0c:	e0bcd517 	ldw	r2,-3244(fp)
   40d10:	01400a04 	movi	r5,40
   40d14:	1009883a 	mov	r4,r2
   40d18:	00451400 	call	45140 <__mulsi3>
   40d1c:	1007883a 	mov	r3,r2
   40d20:	e0bcd617 	ldw	r2,-3240(fp)
   40d24:	1885883a 	add	r2,r3,r2
   40d28:	1085883a 	add	r2,r2,r2
   40d2c:	1085883a 	add	r2,r2,r2
   40d30:	e0fcd104 	addi	r3,fp,-3260
   40d34:	1885883a 	add	r2,r3,r2
   40d38:	10800b04 	addi	r2,r2,44
   40d3c:	14000017 	ldw	r16,0(r2)
   40d40:	e0bcd317 	ldw	r2,-3252(fp)
   40d44:	01400a04 	movi	r5,40
   40d48:	1009883a 	mov	r4,r2
   40d4c:	00451400 	call	45140 <__mulsi3>
   40d50:	1007883a 	mov	r3,r2
   40d54:	e0bcd617 	ldw	r2,-3240(fp)
   40d58:	1885883a 	add	r2,r3,r2
   40d5c:	1085883a 	add	r2,r2,r2
   40d60:	1085883a 	add	r2,r2,r2
   40d64:	e0fcd104 	addi	r3,fp,-3260
   40d68:	1885883a 	add	r2,r3,r2
   40d6c:	10800b04 	addi	r2,r2,44
   40d70:	10c00017 	ldw	r3,0(r2)
   40d74:	e17cdb17 	ldw	r5,-3220(fp)
   40d78:	1809883a 	mov	r4,r3
   40d7c:	0045c6c0 	call	45c6c <__mulsf3>
   40d80:	1007883a 	mov	r3,r2
   40d84:	1805883a 	mov	r2,r3
   40d88:	100b883a 	mov	r5,r2
   40d8c:	8009883a 	mov	r4,r16
   40d90:	004609c0 	call	4609c <__subsf3>
   40d94:	1007883a 	mov	r3,r2
   40d98:	1821883a 	mov	r16,r3
   40d9c:	e0bcd517 	ldw	r2,-3244(fp)
   40da0:	01400a04 	movi	r5,40
   40da4:	1009883a 	mov	r4,r2
   40da8:	00451400 	call	45140 <__mulsi3>
   40dac:	1007883a 	mov	r3,r2
   40db0:	e0bcd617 	ldw	r2,-3240(fp)
   40db4:	1885883a 	add	r2,r3,r2
   40db8:	1085883a 	add	r2,r2,r2
   40dbc:	1085883a 	add	r2,r2,r2
   40dc0:	e0fcd104 	addi	r3,fp,-3260
   40dc4:	1885883a 	add	r2,r3,r2
   40dc8:	10800b04 	addi	r2,r2,44
   40dcc:	14000015 	stw	r16,0(r2)
        // 消去其他行
        for (int i = 0; i < n; i++)
        {
            if (i != pivot) {
                float factor = mat[i][pivot];
                for (int j = pivot; j < 2*n; j++)
   40dd0:	e0bcd617 	ldw	r2,-3240(fp)
   40dd4:	10800044 	addi	r2,r2,1
   40dd8:	e0bcd615 	stw	r2,-3240(fp)
   40ddc:	e0bcd917 	ldw	r2,-3228(fp)
   40de0:	1085883a 	add	r2,r2,r2
   40de4:	1007883a 	mov	r3,r2
   40de8:	e0bcd617 	ldw	r2,-3240(fp)
   40dec:	10ffc716 	blt	r2,r3,40d0c <_exit+0xfffa0d00>
        {
            mat[pivot][j] /= scale;
        }

        // 消去其他行
        for (int i = 0; i < n; i++)
   40df0:	e0bcd517 	ldw	r2,-3244(fp)
   40df4:	10800044 	addi	r2,r2,1
   40df8:	e0bcd515 	stw	r2,-3244(fp)
   40dfc:	e0fcd517 	ldw	r3,-3244(fp)
   40e00:	e0bcd917 	ldw	r2,-3228(fp)
   40e04:	18bfad16 	blt	r3,r2,40cbc <_exit+0xfffa0cb0>
            mat[i][j + n] = (i == j) ? 1 : 0;
        }
    }

    // 高斯消元
    for (int pivot = 0; pivot < n; pivot++)
   40e08:	e0bcd317 	ldw	r2,-3252(fp)
   40e0c:	10800044 	addi	r2,r2,1
   40e10:	e0bcd315 	stw	r2,-3252(fp)
   40e14:	e0fcd317 	ldw	r3,-3252(fp)
   40e18:	e0bcd917 	ldw	r2,-3228(fp)
   40e1c:	18bf5916 	blt	r3,r2,40b84 <_exit+0xfffa0b78>
            }
        }
    }

    // 提取逆矩阵
    output->rows = output->cols = n;
   40e20:	e0bffd17 	ldw	r2,-12(fp)
   40e24:	e0fcd917 	ldw	r3,-3228(fp)
   40e28:	10c00115 	stw	r3,4(r2)
   40e2c:	e0bffd17 	ldw	r2,-12(fp)
   40e30:	10c00117 	ldw	r3,4(r2)
   40e34:	e0bffd17 	ldw	r2,-12(fp)
   40e38:	10c00015 	stw	r3,0(r2)
    for (int i = 0; i < n; i++) {
   40e3c:	e03cd715 	stw	zero,-3236(fp)
   40e40:	00002606 	br	40edc <matrix_inverse+0x4b8>
        for (int j = 0; j < n; j++) {
   40e44:	e03cd815 	stw	zero,-3232(fp)
   40e48:	00001e06 	br	40ec4 <matrix_inverse+0x4a0>
            output->data[i][j] = mat[i][j + n];
   40e4c:	e0fcd817 	ldw	r3,-3232(fp)
   40e50:	e0bcd917 	ldw	r2,-3228(fp)
   40e54:	18a1883a 	add	r16,r3,r2
   40e58:	e0bcd717 	ldw	r2,-3236(fp)
   40e5c:	01400a04 	movi	r5,40
   40e60:	1009883a 	mov	r4,r2
   40e64:	00451400 	call	45140 <__mulsi3>
   40e68:	1405883a 	add	r2,r2,r16
   40e6c:	1085883a 	add	r2,r2,r2
   40e70:	1085883a 	add	r2,r2,r2
   40e74:	e0fcd104 	addi	r3,fp,-3260
   40e78:	1885883a 	add	r2,r3,r2
   40e7c:	10800b04 	addi	r2,r2,44
   40e80:	14000017 	ldw	r16,0(r2)
   40e84:	e47ffd17 	ldw	r17,-12(fp)
   40e88:	e0bcd717 	ldw	r2,-3236(fp)
   40e8c:	01400504 	movi	r5,20
   40e90:	1009883a 	mov	r4,r2
   40e94:	00451400 	call	45140 <__mulsi3>
   40e98:	1007883a 	mov	r3,r2
   40e9c:	e0bcd817 	ldw	r2,-3232(fp)
   40ea0:	1885883a 	add	r2,r3,r2
   40ea4:	10800084 	addi	r2,r2,2
   40ea8:	1085883a 	add	r2,r2,r2
   40eac:	1085883a 	add	r2,r2,r2
   40eb0:	8885883a 	add	r2,r17,r2
   40eb4:	14000015 	stw	r16,0(r2)
    }

    // 提取逆矩阵
    output->rows = output->cols = n;
    for (int i = 0; i < n; i++) {
        for (int j = 0; j < n; j++) {
   40eb8:	e0bcd817 	ldw	r2,-3232(fp)
   40ebc:	10800044 	addi	r2,r2,1
   40ec0:	e0bcd815 	stw	r2,-3232(fp)
   40ec4:	e0fcd817 	ldw	r3,-3232(fp)
   40ec8:	e0bcd917 	ldw	r2,-3228(fp)
   40ecc:	18bfdf16 	blt	r3,r2,40e4c <_exit+0xfffa0e40>
        }
    }

    // 提取逆矩阵
    output->rows = output->cols = n;
    for (int i = 0; i < n; i++) {
   40ed0:	e0bcd717 	ldw	r2,-3236(fp)
   40ed4:	10800044 	addi	r2,r2,1
   40ed8:	e0bcd715 	stw	r2,-3236(fp)
   40edc:	e0fcd717 	ldw	r3,-3236(fp)
   40ee0:	e0bcd917 	ldw	r2,-3228(fp)
   40ee4:	18bfd716 	blt	r3,r2,40e44 <_exit+0xfffa0e38>
        for (int j = 0; j < n; j++) {
            output->data[i][j] = mat[i][j + n];
        }
    }
    return 0;
   40ee8:	0005883a 	mov	r2,zero
}
   40eec:	e6fffe04 	addi	sp,fp,-8
   40ef0:	dfc00317 	ldw	ra,12(sp)
   40ef4:	df000217 	ldw	fp,8(sp)
   40ef8:	dc400117 	ldw	r17,4(sp)
   40efc:	dc000017 	ldw	r16,0(sp)
   40f00:	dec00404 	addi	sp,sp,16
   40f04:	f800283a 	ret

00040f08 <svd_decomposition>:

void svd_decomposition(const Matrix *A, Matrix *U, Matrix *S, Matrix *V) {
   40f08:	deffaa04 	addi	sp,sp,-344
   40f0c:	dfc05515 	stw	ra,340(sp)
   40f10:	df005415 	stw	fp,336(sp)
   40f14:	dc405315 	stw	r17,332(sp)
   40f18:	dc005215 	stw	r16,328(sp)
   40f1c:	df005404 	addi	fp,sp,336
   40f20:	e13ffa15 	stw	r4,-24(fp)
   40f24:	e17ffb15 	stw	r5,-20(fp)
   40f28:	e1bffc15 	stw	r6,-16(fp)
   40f2c:	e1fffd15 	stw	r7,-12(fp)
    int m = A->rows, n = A->cols;
   40f30:	e0bffa17 	ldw	r2,-24(fp)
   40f34:	10800017 	ldw	r2,0(r2)
   40f38:	e0bfc015 	stw	r2,-256(fp)
   40f3c:	e0bffa17 	ldw	r2,-24(fp)
   40f40:	10800117 	ldw	r2,4(r2)
   40f44:	e0bfc115 	stw	r2,-252(fp)
    const int size = MIN(m, n);
   40f48:	e0ffc017 	ldw	r3,-256(fp)
   40f4c:	e0bfc117 	ldw	r2,-252(fp)
   40f50:	1880010e 	bge	r3,r2,40f58 <svd_decomposition+0x50>
   40f54:	1805883a 	mov	r2,r3
   40f58:	e0bfc215 	stw	r2,-248(fp)

    // 初始化S矩阵为A的副本
    S->rows = m; S->cols = n;
   40f5c:	e0bffc17 	ldw	r2,-16(fp)
   40f60:	e0ffc017 	ldw	r3,-256(fp)
   40f64:	10c00015 	stw	r3,0(r2)
   40f68:	e0bffc17 	ldw	r2,-16(fp)
   40f6c:	e0ffc117 	ldw	r3,-252(fp)
   40f70:	10c00115 	stw	r3,4(r2)
    for(int i=0; i<m; i++)
   40f74:	e03fac15 	stw	zero,-336(fp)
   40f78:	00002506 	br	41010 <svd_decomposition+0x108>
        for(int j=0; j<n; j++)
   40f7c:	e03fad15 	stw	zero,-332(fp)
   40f80:	00001d06 	br	40ff8 <svd_decomposition+0xf0>
            S->data[i][j] = A->data[i][j];
   40f84:	e43ffa17 	ldw	r16,-24(fp)
   40f88:	e0bfac17 	ldw	r2,-336(fp)
   40f8c:	01400504 	movi	r5,20
   40f90:	1009883a 	mov	r4,r2
   40f94:	00451400 	call	45140 <__mulsi3>
   40f98:	1007883a 	mov	r3,r2
   40f9c:	e0bfad17 	ldw	r2,-332(fp)
   40fa0:	1885883a 	add	r2,r3,r2
   40fa4:	10800084 	addi	r2,r2,2
   40fa8:	1085883a 	add	r2,r2,r2
   40fac:	1085883a 	add	r2,r2,r2
   40fb0:	8085883a 	add	r2,r16,r2
   40fb4:	14000017 	ldw	r16,0(r2)
   40fb8:	e47ffc17 	ldw	r17,-16(fp)
   40fbc:	e0bfac17 	ldw	r2,-336(fp)
   40fc0:	01400504 	movi	r5,20
   40fc4:	1009883a 	mov	r4,r2
   40fc8:	00451400 	call	45140 <__mulsi3>
   40fcc:	1007883a 	mov	r3,r2
   40fd0:	e0bfad17 	ldw	r2,-332(fp)
   40fd4:	1885883a 	add	r2,r3,r2
   40fd8:	10800084 	addi	r2,r2,2
   40fdc:	1085883a 	add	r2,r2,r2
   40fe0:	1085883a 	add	r2,r2,r2
   40fe4:	8885883a 	add	r2,r17,r2
   40fe8:	14000015 	stw	r16,0(r2)
    const int size = MIN(m, n);

    // 初始化S矩阵为A的副本
    S->rows = m; S->cols = n;
    for(int i=0; i<m; i++)
        for(int j=0; j<n; j++)
   40fec:	e0bfad17 	ldw	r2,-332(fp)
   40ff0:	10800044 	addi	r2,r2,1
   40ff4:	e0bfad15 	stw	r2,-332(fp)
   40ff8:	e0ffad17 	ldw	r3,-332(fp)
   40ffc:	e0bfc117 	ldw	r2,-252(fp)
   41000:	18bfe016 	blt	r3,r2,40f84 <_exit+0xfffa0f78>
    int m = A->rows, n = A->cols;
    const int size = MIN(m, n);

    // 初始化S矩阵为A的副本
    S->rows = m; S->cols = n;
    for(int i=0; i<m; i++)
   41004:	e0bfac17 	ldw	r2,-336(fp)
   41008:	10800044 	addi	r2,r2,1
   4100c:	e0bfac15 	stw	r2,-336(fp)
   41010:	e0ffac17 	ldw	r3,-336(fp)
   41014:	e0bfc017 	ldw	r2,-256(fp)
   41018:	18bfd816 	blt	r3,r2,40f7c <_exit+0xfffa0f70>
        for(int j=0; j<n; j++)
            S->data[i][j] = A->data[i][j];

    // 初始化U和V为单位矩阵
    U->rows = U->cols = m;
   4101c:	e0bffb17 	ldw	r2,-20(fp)
   41020:	e0ffc017 	ldw	r3,-256(fp)
   41024:	10c00115 	stw	r3,4(r2)
   41028:	e0bffb17 	ldw	r2,-20(fp)
   4102c:	10c00117 	ldw	r3,4(r2)
   41030:	e0bffb17 	ldw	r2,-20(fp)
   41034:	10c00015 	stw	r3,0(r2)
    V->rows = V->cols = n;
   41038:	e0bffd17 	ldw	r2,-12(fp)
   4103c:	e0ffc117 	ldw	r3,-252(fp)
   41040:	10c00115 	stw	r3,4(r2)
   41044:	e0bffd17 	ldw	r2,-12(fp)
   41048:	10c00117 	ldw	r3,4(r2)
   4104c:	e0bffd17 	ldw	r2,-12(fp)
   41050:	10c00015 	stw	r3,0(r2)
    for(int i=0; i<MAX_SIZE; i++){
   41054:	e03fae15 	stw	zero,-328(fp)
   41058:	00003706 	br	41138 <svd_decomposition+0x230>
        for(int j=0; j<MAX_SIZE; j++){
   4105c:	e03faf15 	stw	zero,-324(fp)
   41060:	00002f06 	br	41120 <svd_decomposition+0x218>
            U->data[i][j] = (i==j && i<m) ? 1.0f : 0.0f;
   41064:	e0ffae17 	ldw	r3,-328(fp)
   41068:	e0bfaf17 	ldw	r2,-324(fp)
   4106c:	1880051e 	bne	r3,r2,41084 <svd_decomposition+0x17c>
   41070:	e0ffae17 	ldw	r3,-328(fp)
   41074:	e0bfc017 	ldw	r2,-256(fp)
   41078:	1880020e 	bge	r3,r2,41084 <svd_decomposition+0x17c>
   4107c:	040fe034 	movhi	r16,16256
   41080:	00000106 	br	41088 <svd_decomposition+0x180>
   41084:	0021883a 	mov	r16,zero
   41088:	e47ffb17 	ldw	r17,-20(fp)
   4108c:	e0bfae17 	ldw	r2,-328(fp)
   41090:	01400504 	movi	r5,20
   41094:	1009883a 	mov	r4,r2
   41098:	00451400 	call	45140 <__mulsi3>
   4109c:	1007883a 	mov	r3,r2
   410a0:	e0bfaf17 	ldw	r2,-324(fp)
   410a4:	1885883a 	add	r2,r3,r2
   410a8:	10800084 	addi	r2,r2,2
   410ac:	1085883a 	add	r2,r2,r2
   410b0:	1085883a 	add	r2,r2,r2
   410b4:	8885883a 	add	r2,r17,r2
   410b8:	14000015 	stw	r16,0(r2)
            V->data[i][j] = (i==j && i<n) ? 1.0f : 0.0f;
   410bc:	e0ffae17 	ldw	r3,-328(fp)
   410c0:	e0bfaf17 	ldw	r2,-324(fp)
   410c4:	1880051e 	bne	r3,r2,410dc <svd_decomposition+0x1d4>
   410c8:	e0ffae17 	ldw	r3,-328(fp)
   410cc:	e0bfc117 	ldw	r2,-252(fp)
   410d0:	1880020e 	bge	r3,r2,410dc <svd_decomposition+0x1d4>
   410d4:	040fe034 	movhi	r16,16256
   410d8:	00000106 	br	410e0 <svd_decomposition+0x1d8>
   410dc:	0021883a 	mov	r16,zero
   410e0:	e47ffd17 	ldw	r17,-12(fp)
   410e4:	e0bfae17 	ldw	r2,-328(fp)
   410e8:	01400504 	movi	r5,20
   410ec:	1009883a 	mov	r4,r2
   410f0:	00451400 	call	45140 <__mulsi3>
   410f4:	1007883a 	mov	r3,r2
   410f8:	e0bfaf17 	ldw	r2,-324(fp)
   410fc:	1885883a 	add	r2,r3,r2
   41100:	10800084 	addi	r2,r2,2
   41104:	1085883a 	add	r2,r2,r2
   41108:	1085883a 	add	r2,r2,r2
   4110c:	8885883a 	add	r2,r17,r2
   41110:	14000015 	stw	r16,0(r2)

    // 初始化U和V为单位矩阵
    U->rows = U->cols = m;
    V->rows = V->cols = n;
    for(int i=0; i<MAX_SIZE; i++){
        for(int j=0; j<MAX_SIZE; j++){
   41114:	e0bfaf17 	ldw	r2,-324(fp)
   41118:	10800044 	addi	r2,r2,1
   4111c:	e0bfaf15 	stw	r2,-324(fp)
   41120:	e0bfaf17 	ldw	r2,-324(fp)
   41124:	10800510 	cmplti	r2,r2,20
   41128:	103fce1e 	bne	r2,zero,41064 <_exit+0xfffa1058>
            S->data[i][j] = A->data[i][j];

    // 初始化U和V为单位矩阵
    U->rows = U->cols = m;
    V->rows = V->cols = n;
    for(int i=0; i<MAX_SIZE; i++){
   4112c:	e0bfae17 	ldw	r2,-328(fp)
   41130:	10800044 	addi	r2,r2,1
   41134:	e0bfae15 	stw	r2,-328(fp)
   41138:	e0bfae17 	ldw	r2,-328(fp)
   4113c:	10800510 	cmplti	r2,r2,20
   41140:	103fc61e 	bne	r2,zero,4105c <_exit+0xfffa1050>
            V->data[i][j] = (i==j && i<n) ? 1.0f : 0.0f;
        }
    }

    // 改进的雅可比迭代
    for(int iter=0; iter<MAX_ITER; iter++){
   41144:	e03fb015 	stw	zero,-320(fp)
   41148:	00026406 	br	41adc <svd_decomposition+0xbd4>
        float max_off = 0.0f;
   4114c:	e03fb115 	stw	zero,-316(fp)
        int p = 0, q = 0;
   41150:	e03fb215 	stw	zero,-312(fp)
   41154:	e03fb315 	stw	zero,-308(fp)

        // 寻找最大非对角元素（全矩阵扫描）
        for(int i=0; i<size; i++){
   41158:	e03fb415 	stw	zero,-304(fp)
   4115c:	00003c06 	br	41250 <svd_decomposition+0x348>
            for(int j=i+1; j<size; j++){
   41160:	e0bfb417 	ldw	r2,-304(fp)
   41164:	10800044 	addi	r2,r2,1
   41168:	e0bfb515 	stw	r2,-300(fp)
   4116c:	00003206 	br	41238 <svd_decomposition+0x330>
                float off_diag = fabs(S->data[i][j]) + fabs(S->data[j][i]);
   41170:	e43ffc17 	ldw	r16,-16(fp)
   41174:	e0bfb417 	ldw	r2,-304(fp)
   41178:	01400504 	movi	r5,20
   4117c:	1009883a 	mov	r4,r2
   41180:	00451400 	call	45140 <__mulsi3>
   41184:	1007883a 	mov	r3,r2
   41188:	e0bfb517 	ldw	r2,-300(fp)
   4118c:	1885883a 	add	r2,r3,r2
   41190:	10800084 	addi	r2,r2,2
   41194:	1085883a 	add	r2,r2,r2
   41198:	1085883a 	add	r2,r2,r2
   4119c:	8085883a 	add	r2,r16,r2
   411a0:	10c00017 	ldw	r3,0(r2)
   411a4:	00a00034 	movhi	r2,32768
   411a8:	10bfffc4 	addi	r2,r2,-1
   411ac:	18a2703a 	and	r17,r3,r2
   411b0:	e43ffc17 	ldw	r16,-16(fp)
   411b4:	e0bfb517 	ldw	r2,-300(fp)
   411b8:	01400504 	movi	r5,20
   411bc:	1009883a 	mov	r4,r2
   411c0:	00451400 	call	45140 <__mulsi3>
   411c4:	1007883a 	mov	r3,r2
   411c8:	e0bfb417 	ldw	r2,-304(fp)
   411cc:	1885883a 	add	r2,r3,r2
   411d0:	10800084 	addi	r2,r2,2
   411d4:	1085883a 	add	r2,r2,r2
   411d8:	1085883a 	add	r2,r2,r2
   411dc:	8085883a 	add	r2,r16,r2
   411e0:	10c00017 	ldw	r3,0(r2)
   411e4:	00a00034 	movhi	r2,32768
   411e8:	10bfffc4 	addi	r2,r2,-1
   411ec:	1884703a 	and	r2,r3,r2
   411f0:	100b883a 	mov	r5,r2
   411f4:	8809883a 	mov	r4,r17
   411f8:	00451680 	call	45168 <__addsf3>
   411fc:	1007883a 	mov	r3,r2
   41200:	e0ffc315 	stw	r3,-244(fp)
                if(off_diag > max_off){
   41204:	e17fb117 	ldw	r5,-316(fp)
   41208:	e13fc317 	ldw	r4,-244(fp)
   4120c:	0045ae80 	call	45ae8 <__gesf2>
   41210:	0080060e 	bge	zero,r2,4122c <svd_decomposition+0x324>
                    max_off = off_diag;
   41214:	e0bfc317 	ldw	r2,-244(fp)
   41218:	e0bfb115 	stw	r2,-316(fp)
                    p = i; q = j;
   4121c:	e0bfb417 	ldw	r2,-304(fp)
   41220:	e0bfb215 	stw	r2,-312(fp)
   41224:	e0bfb517 	ldw	r2,-300(fp)
   41228:	e0bfb315 	stw	r2,-308(fp)
        float max_off = 0.0f;
        int p = 0, q = 0;

        // 寻找最大非对角元素（全矩阵扫描）
        for(int i=0; i<size; i++){
            for(int j=i+1; j<size; j++){
   4122c:	e0bfb517 	ldw	r2,-300(fp)
   41230:	10800044 	addi	r2,r2,1
   41234:	e0bfb515 	stw	r2,-300(fp)
   41238:	e0ffb517 	ldw	r3,-300(fp)
   4123c:	e0bfc217 	ldw	r2,-248(fp)
   41240:	18bfcb16 	blt	r3,r2,41170 <_exit+0xfffa1164>
    for(int iter=0; iter<MAX_ITER; iter++){
        float max_off = 0.0f;
        int p = 0, q = 0;

        // 寻找最大非对角元素（全矩阵扫描）
        for(int i=0; i<size; i++){
   41244:	e0bfb417 	ldw	r2,-304(fp)
   41248:	10800044 	addi	r2,r2,1
   4124c:	e0bfb415 	stw	r2,-304(fp)
   41250:	e0ffb417 	ldw	r3,-304(fp)
   41254:	e0bfc217 	ldw	r2,-248(fp)
   41258:	18bfc116 	blt	r3,r2,41160 <_exit+0xfffa1154>
                    max_off = off_diag;
                    p = i; q = j;
                }
            }
        }
        if(max_off < TOLERANCE) break;
   4125c:	014cf5f4 	movhi	r5,13271
   41260:	296fe544 	addi	r5,r5,-16491
   41264:	e13fb117 	ldw	r4,-316(fp)
   41268:	0045ba40 	call	45ba4 <__lesf2>
   4126c:	10021f16 	blt	r2,zero,41aec <svd_decomposition+0xbe4>

        // 计算2x2子矩阵
        float a = S->data[p][p], b = S->data[p][q];
   41270:	e43ffc17 	ldw	r16,-16(fp)
   41274:	e0bfb217 	ldw	r2,-312(fp)
   41278:	01401504 	movi	r5,84
   4127c:	1009883a 	mov	r4,r2
   41280:	00451400 	call	45140 <__mulsi3>
   41284:	8085883a 	add	r2,r16,r2
   41288:	10800204 	addi	r2,r2,8
   4128c:	10800017 	ldw	r2,0(r2)
   41290:	e0bfc415 	stw	r2,-240(fp)
   41294:	e43ffc17 	ldw	r16,-16(fp)
   41298:	e0bfb217 	ldw	r2,-312(fp)
   4129c:	01400504 	movi	r5,20
   412a0:	1009883a 	mov	r4,r2
   412a4:	00451400 	call	45140 <__mulsi3>
   412a8:	1007883a 	mov	r3,r2
   412ac:	e0bfb317 	ldw	r2,-308(fp)
   412b0:	1885883a 	add	r2,r3,r2
   412b4:	10800084 	addi	r2,r2,2
   412b8:	1085883a 	add	r2,r2,r2
   412bc:	1085883a 	add	r2,r2,r2
   412c0:	8085883a 	add	r2,r16,r2
   412c4:	10800017 	ldw	r2,0(r2)
   412c8:	e0bfc515 	stw	r2,-236(fp)
        float c = S->data[q][p], d = S->data[q][q];
   412cc:	e43ffc17 	ldw	r16,-16(fp)
   412d0:	e0bfb317 	ldw	r2,-308(fp)
   412d4:	01400504 	movi	r5,20
   412d8:	1009883a 	mov	r4,r2
   412dc:	00451400 	call	45140 <__mulsi3>
   412e0:	1007883a 	mov	r3,r2
   412e4:	e0bfb217 	ldw	r2,-312(fp)
   412e8:	1885883a 	add	r2,r3,r2
   412ec:	10800084 	addi	r2,r2,2
   412f0:	1085883a 	add	r2,r2,r2
   412f4:	1085883a 	add	r2,r2,r2
   412f8:	8085883a 	add	r2,r16,r2
   412fc:	10800017 	ldw	r2,0(r2)
   41300:	e0bfc615 	stw	r2,-232(fp)
   41304:	e43ffc17 	ldw	r16,-16(fp)
   41308:	e0bfb317 	ldw	r2,-308(fp)
   4130c:	01401504 	movi	r5,84
   41310:	1009883a 	mov	r4,r2
   41314:	00451400 	call	45140 <__mulsi3>
   41318:	8085883a 	add	r2,r16,r2
   4131c:	10800204 	addi	r2,r2,8
   41320:	10800017 	ldw	r2,0(r2)
   41324:	e0bfc715 	stw	r2,-228(fp)

        // 计算精确旋转角度（双边雅可比）
        float theta = 0.5f * atan2(2*(b + c), a - d);
   41328:	e17fc617 	ldw	r5,-232(fp)
   4132c:	e13fc517 	ldw	r4,-236(fp)
   41330:	00451680 	call	45168 <__addsf3>
   41334:	1007883a 	mov	r3,r2
   41338:	1805883a 	mov	r2,r3
   4133c:	100b883a 	mov	r5,r2
   41340:	1009883a 	mov	r4,r2
   41344:	00451680 	call	45168 <__addsf3>
   41348:	1007883a 	mov	r3,r2
   4134c:	1805883a 	mov	r2,r3
   41350:	1009883a 	mov	r4,r2
   41354:	0048cc80 	call	48cc8 <__extendsfdf2>
   41358:	1021883a 	mov	r16,r2
   4135c:	1823883a 	mov	r17,r3
   41360:	e17fc717 	ldw	r5,-228(fp)
   41364:	e13fc417 	ldw	r4,-240(fp)
   41368:	004609c0 	call	4609c <__subsf3>
   4136c:	1007883a 	mov	r3,r2
   41370:	1805883a 	mov	r2,r3
   41374:	1009883a 	mov	r4,r2
   41378:	0048cc80 	call	48cc8 <__extendsfdf2>
   4137c:	1009883a 	mov	r4,r2
   41380:	180b883a 	mov	r5,r3
   41384:	200d883a 	mov	r6,r4
   41388:	280f883a 	mov	r7,r5
   4138c:	8009883a 	mov	r4,r16
   41390:	880b883a 	mov	r5,r17
   41394:	00430100 	call	43010 <atan2>
   41398:	1011883a 	mov	r8,r2
   4139c:	1813883a 	mov	r9,r3
   413a0:	000d883a 	mov	r6,zero
   413a4:	01cff834 	movhi	r7,16352
   413a8:	4009883a 	mov	r4,r8
   413ac:	480b883a 	mov	r5,r9
   413b0:	0047b600 	call	47b60 <__muldf3>
   413b4:	1009883a 	mov	r4,r2
   413b8:	180b883a 	mov	r5,r3
   413bc:	2005883a 	mov	r2,r4
   413c0:	2807883a 	mov	r3,r5
   413c4:	1009883a 	mov	r4,r2
   413c8:	180b883a 	mov	r5,r3
   413cc:	0048dd80 	call	48dd8 <__truncdfsf2>
   413d0:	1007883a 	mov	r3,r2
   413d4:	e0ffc815 	stw	r3,-224(fp)
        float cos_theta = cosf(theta);
   413d8:	e13fc817 	ldw	r4,-224(fp)
   413dc:	0042eb00 	call	42eb0 <cosf>
   413e0:	e0bfc915 	stw	r2,-220(fp)
        float sin_theta = sinf(theta);
   413e4:	e13fc817 	ldw	r4,-224(fp)
   413e8:	0042f600 	call	42f60 <sinf>
   413ec:	e0bfca15 	stw	r2,-216(fp)

        // 左乘旋转矩阵（行操作）
        float temp_row[MAX_SIZE];
        for(int j=0; j<n; j++){
   413f0:	e03fb615 	stw	zero,-296(fp)
   413f4:	00007906 	br	415dc <svd_decomposition+0x6d4>
            temp_row[j] = S->data[p][j];
   413f8:	e43ffc17 	ldw	r16,-16(fp)
   413fc:	e0bfb217 	ldw	r2,-312(fp)
   41400:	01400504 	movi	r5,20
   41404:	1009883a 	mov	r4,r2
   41408:	00451400 	call	45140 <__mulsi3>
   4140c:	1007883a 	mov	r3,r2
   41410:	e0bfb617 	ldw	r2,-296(fp)
   41414:	1885883a 	add	r2,r3,r2
   41418:	10800084 	addi	r2,r2,2
   4141c:	1085883a 	add	r2,r2,r2
   41420:	1085883a 	add	r2,r2,r2
   41424:	8085883a 	add	r2,r16,r2
   41428:	10c00017 	ldw	r3,0(r2)
   4142c:	e0bfb617 	ldw	r2,-296(fp)
   41430:	1085883a 	add	r2,r2,r2
   41434:	1085883a 	add	r2,r2,r2
   41438:	e13fac04 	addi	r4,fp,-336
   4143c:	2085883a 	add	r2,r4,r2
   41440:	10803a04 	addi	r2,r2,232
   41444:	10c00015 	stw	r3,0(r2)
            S->data[p][j] =  cos_theta * temp_row[j] + sin_theta * S->data[q][j];
   41448:	e0bfb617 	ldw	r2,-296(fp)
   4144c:	1085883a 	add	r2,r2,r2
   41450:	1085883a 	add	r2,r2,r2
   41454:	e0ffac04 	addi	r3,fp,-336
   41458:	1885883a 	add	r2,r3,r2
   4145c:	10803a04 	addi	r2,r2,232
   41460:	10c00017 	ldw	r3,0(r2)
   41464:	e17fc917 	ldw	r5,-220(fp)
   41468:	1809883a 	mov	r4,r3
   4146c:	0045c6c0 	call	45c6c <__mulsf3>
   41470:	1007883a 	mov	r3,r2
   41474:	1823883a 	mov	r17,r3
   41478:	e43ffc17 	ldw	r16,-16(fp)
   4147c:	e0bfb317 	ldw	r2,-308(fp)
   41480:	01400504 	movi	r5,20
   41484:	1009883a 	mov	r4,r2
   41488:	00451400 	call	45140 <__mulsi3>
   4148c:	1007883a 	mov	r3,r2
   41490:	e0bfb617 	ldw	r2,-296(fp)
   41494:	1885883a 	add	r2,r3,r2
   41498:	10800084 	addi	r2,r2,2
   4149c:	1085883a 	add	r2,r2,r2
   414a0:	1085883a 	add	r2,r2,r2
   414a4:	8085883a 	add	r2,r16,r2
   414a8:	10c00017 	ldw	r3,0(r2)
   414ac:	e17fca17 	ldw	r5,-216(fp)
   414b0:	1809883a 	mov	r4,r3
   414b4:	0045c6c0 	call	45c6c <__mulsf3>
   414b8:	1007883a 	mov	r3,r2
   414bc:	1805883a 	mov	r2,r3
   414c0:	100b883a 	mov	r5,r2
   414c4:	8809883a 	mov	r4,r17
   414c8:	00451680 	call	45168 <__addsf3>
   414cc:	1007883a 	mov	r3,r2
   414d0:	1823883a 	mov	r17,r3
   414d4:	e43ffc17 	ldw	r16,-16(fp)
   414d8:	e0bfb217 	ldw	r2,-312(fp)
   414dc:	01400504 	movi	r5,20
   414e0:	1009883a 	mov	r4,r2
   414e4:	00451400 	call	45140 <__mulsi3>
   414e8:	1007883a 	mov	r3,r2
   414ec:	e0bfb617 	ldw	r2,-296(fp)
   414f0:	1885883a 	add	r2,r3,r2
   414f4:	10800084 	addi	r2,r2,2
   414f8:	1085883a 	add	r2,r2,r2
   414fc:	1085883a 	add	r2,r2,r2
   41500:	8085883a 	add	r2,r16,r2
   41504:	14400015 	stw	r17,0(r2)
            S->data[q][j] = -sin_theta * temp_row[j] + cos_theta * S->data[q][j];
   41508:	e0bfca17 	ldw	r2,-216(fp)
   4150c:	10e0003c 	xorhi	r3,r2,32768
   41510:	e0bfb617 	ldw	r2,-296(fp)
   41514:	1085883a 	add	r2,r2,r2
   41518:	1085883a 	add	r2,r2,r2
   4151c:	e13fac04 	addi	r4,fp,-336
   41520:	2085883a 	add	r2,r4,r2
   41524:	10803a04 	addi	r2,r2,232
   41528:	11000017 	ldw	r4,0(r2)
   4152c:	200b883a 	mov	r5,r4
   41530:	1809883a 	mov	r4,r3
   41534:	0045c6c0 	call	45c6c <__mulsf3>
   41538:	1007883a 	mov	r3,r2
   4153c:	1823883a 	mov	r17,r3
   41540:	e43ffc17 	ldw	r16,-16(fp)
   41544:	e0bfb317 	ldw	r2,-308(fp)
   41548:	01400504 	movi	r5,20
   4154c:	1009883a 	mov	r4,r2
   41550:	00451400 	call	45140 <__mulsi3>
   41554:	1007883a 	mov	r3,r2
   41558:	e0bfb617 	ldw	r2,-296(fp)
   4155c:	1885883a 	add	r2,r3,r2
   41560:	10800084 	addi	r2,r2,2
   41564:	1085883a 	add	r2,r2,r2
   41568:	1085883a 	add	r2,r2,r2
   4156c:	8085883a 	add	r2,r16,r2
   41570:	10c00017 	ldw	r3,0(r2)
   41574:	e17fc917 	ldw	r5,-220(fp)
   41578:	1809883a 	mov	r4,r3
   4157c:	0045c6c0 	call	45c6c <__mulsf3>
   41580:	1007883a 	mov	r3,r2
   41584:	1805883a 	mov	r2,r3
   41588:	100b883a 	mov	r5,r2
   4158c:	8809883a 	mov	r4,r17
   41590:	00451680 	call	45168 <__addsf3>
   41594:	1007883a 	mov	r3,r2
   41598:	1823883a 	mov	r17,r3
   4159c:	e43ffc17 	ldw	r16,-16(fp)
   415a0:	e0bfb317 	ldw	r2,-308(fp)
   415a4:	01400504 	movi	r5,20
   415a8:	1009883a 	mov	r4,r2
   415ac:	00451400 	call	45140 <__mulsi3>
   415b0:	1007883a 	mov	r3,r2
   415b4:	e0bfb617 	ldw	r2,-296(fp)
   415b8:	1885883a 	add	r2,r3,r2
   415bc:	10800084 	addi	r2,r2,2
   415c0:	1085883a 	add	r2,r2,r2
   415c4:	1085883a 	add	r2,r2,r2
   415c8:	8085883a 	add	r2,r16,r2
   415cc:	14400015 	stw	r17,0(r2)
        float cos_theta = cosf(theta);
        float sin_theta = sinf(theta);

        // 左乘旋转矩阵（行操作）
        float temp_row[MAX_SIZE];
        for(int j=0; j<n; j++){
   415d0:	e0bfb617 	ldw	r2,-296(fp)
   415d4:	10800044 	addi	r2,r2,1
   415d8:	e0bfb615 	stw	r2,-296(fp)
   415dc:	e0ffb617 	ldw	r3,-296(fp)
   415e0:	e0bfc117 	ldw	r2,-252(fp)
   415e4:	18bf8416 	blt	r3,r2,413f8 <_exit+0xfffa13ec>
            S->data[p][j] =  cos_theta * temp_row[j] + sin_theta * S->data[q][j];
            S->data[q][j] = -sin_theta * temp_row[j] + cos_theta * S->data[q][j];
        }

        // 更新U矩阵
        for(int i=0; i<m; i++){
   415e8:	e03fb715 	stw	zero,-292(fp)
   415ec:	00005906 	br	41754 <svd_decomposition+0x84c>
            float Uip = U->data[i][p];
   415f0:	e43ffb17 	ldw	r16,-20(fp)
   415f4:	e0bfb717 	ldw	r2,-292(fp)
   415f8:	01400504 	movi	r5,20
   415fc:	1009883a 	mov	r4,r2
   41600:	00451400 	call	45140 <__mulsi3>
   41604:	1007883a 	mov	r3,r2
   41608:	e0bfb217 	ldw	r2,-312(fp)
   4160c:	1885883a 	add	r2,r3,r2
   41610:	10800084 	addi	r2,r2,2
   41614:	1085883a 	add	r2,r2,r2
   41618:	1085883a 	add	r2,r2,r2
   4161c:	8085883a 	add	r2,r16,r2
   41620:	10800017 	ldw	r2,0(r2)
   41624:	e0bfcb15 	stw	r2,-212(fp)
            float Uiq = U->data[i][q];
   41628:	e43ffb17 	ldw	r16,-20(fp)
   4162c:	e0bfb717 	ldw	r2,-292(fp)
   41630:	01400504 	movi	r5,20
   41634:	1009883a 	mov	r4,r2
   41638:	00451400 	call	45140 <__mulsi3>
   4163c:	1007883a 	mov	r3,r2
   41640:	e0bfb317 	ldw	r2,-308(fp)
   41644:	1885883a 	add	r2,r3,r2
   41648:	10800084 	addi	r2,r2,2
   4164c:	1085883a 	add	r2,r2,r2
   41650:	1085883a 	add	r2,r2,r2
   41654:	8085883a 	add	r2,r16,r2
   41658:	10800017 	ldw	r2,0(r2)
   4165c:	e0bfcc15 	stw	r2,-208(fp)
            U->data[i][p] =  cos_theta * Uip + sin_theta * Uiq;
   41660:	e17fcb17 	ldw	r5,-212(fp)
   41664:	e13fc917 	ldw	r4,-220(fp)
   41668:	0045c6c0 	call	45c6c <__mulsf3>
   4166c:	1007883a 	mov	r3,r2
   41670:	1821883a 	mov	r16,r3
   41674:	e17fcc17 	ldw	r5,-208(fp)
   41678:	e13fca17 	ldw	r4,-216(fp)
   4167c:	0045c6c0 	call	45c6c <__mulsf3>
   41680:	1007883a 	mov	r3,r2
   41684:	1805883a 	mov	r2,r3
   41688:	100b883a 	mov	r5,r2
   4168c:	8009883a 	mov	r4,r16
   41690:	00451680 	call	45168 <__addsf3>
   41694:	1007883a 	mov	r3,r2
   41698:	1823883a 	mov	r17,r3
   4169c:	e43ffb17 	ldw	r16,-20(fp)
   416a0:	e0bfb717 	ldw	r2,-292(fp)
   416a4:	01400504 	movi	r5,20
   416a8:	1009883a 	mov	r4,r2
   416ac:	00451400 	call	45140 <__mulsi3>
   416b0:	1007883a 	mov	r3,r2
   416b4:	e0bfb217 	ldw	r2,-312(fp)
   416b8:	1885883a 	add	r2,r3,r2
   416bc:	10800084 	addi	r2,r2,2
   416c0:	1085883a 	add	r2,r2,r2
   416c4:	1085883a 	add	r2,r2,r2
   416c8:	8085883a 	add	r2,r16,r2
   416cc:	14400015 	stw	r17,0(r2)
            U->data[i][q] = -sin_theta * Uip + cos_theta * Uiq;
   416d0:	e0bfca17 	ldw	r2,-216(fp)
   416d4:	10a0003c 	xorhi	r2,r2,32768
   416d8:	e17fcb17 	ldw	r5,-212(fp)
   416dc:	1009883a 	mov	r4,r2
   416e0:	0045c6c0 	call	45c6c <__mulsf3>
   416e4:	1007883a 	mov	r3,r2
   416e8:	1821883a 	mov	r16,r3
   416ec:	e17fcc17 	ldw	r5,-208(fp)
   416f0:	e13fc917 	ldw	r4,-220(fp)
   416f4:	0045c6c0 	call	45c6c <__mulsf3>
   416f8:	1007883a 	mov	r3,r2
   416fc:	1805883a 	mov	r2,r3
   41700:	100b883a 	mov	r5,r2
   41704:	8009883a 	mov	r4,r16
   41708:	00451680 	call	45168 <__addsf3>
   4170c:	1007883a 	mov	r3,r2
   41710:	1823883a 	mov	r17,r3
   41714:	e43ffb17 	ldw	r16,-20(fp)
   41718:	e0bfb717 	ldw	r2,-292(fp)
   4171c:	01400504 	movi	r5,20
   41720:	1009883a 	mov	r4,r2
   41724:	00451400 	call	45140 <__mulsi3>
   41728:	1007883a 	mov	r3,r2
   4172c:	e0bfb317 	ldw	r2,-308(fp)
   41730:	1885883a 	add	r2,r3,r2
   41734:	10800084 	addi	r2,r2,2
   41738:	1085883a 	add	r2,r2,r2
   4173c:	1085883a 	add	r2,r2,r2
   41740:	8085883a 	add	r2,r16,r2
   41744:	14400015 	stw	r17,0(r2)
            S->data[p][j] =  cos_theta * temp_row[j] + sin_theta * S->data[q][j];
            S->data[q][j] = -sin_theta * temp_row[j] + cos_theta * S->data[q][j];
        }

        // 更新U矩阵
        for(int i=0; i<m; i++){
   41748:	e0bfb717 	ldw	r2,-292(fp)
   4174c:	10800044 	addi	r2,r2,1
   41750:	e0bfb715 	stw	r2,-292(fp)
   41754:	e0ffb717 	ldw	r3,-292(fp)
   41758:	e0bfc017 	ldw	r2,-256(fp)
   4175c:	18bfa416 	blt	r3,r2,415f0 <_exit+0xfffa15e4>
            U->data[i][q] = -sin_theta * Uip + cos_theta * Uiq;
        }

        // 右乘旋转矩阵（列操作）
        float temp_col[MAX_SIZE];
        for(int i=0; i<m; i++){
   41760:	e03fb815 	stw	zero,-288(fp)
   41764:	00007906 	br	4194c <svd_decomposition+0xa44>
            temp_col[i] = S->data[i][p];
   41768:	e43ffc17 	ldw	r16,-16(fp)
   4176c:	e0bfb817 	ldw	r2,-288(fp)
   41770:	01400504 	movi	r5,20
   41774:	1009883a 	mov	r4,r2
   41778:	00451400 	call	45140 <__mulsi3>
   4177c:	1007883a 	mov	r3,r2
   41780:	e0bfb217 	ldw	r2,-312(fp)
   41784:	1885883a 	add	r2,r3,r2
   41788:	10800084 	addi	r2,r2,2
   4178c:	1085883a 	add	r2,r2,r2
   41790:	1085883a 	add	r2,r2,r2
   41794:	8085883a 	add	r2,r16,r2
   41798:	10c00017 	ldw	r3,0(r2)
   4179c:	e0bfb817 	ldw	r2,-288(fp)
   417a0:	1085883a 	add	r2,r2,r2
   417a4:	1085883a 	add	r2,r2,r2
   417a8:	e13fac04 	addi	r4,fp,-336
   417ac:	2085883a 	add	r2,r4,r2
   417b0:	10802604 	addi	r2,r2,152
   417b4:	10c00015 	stw	r3,0(r2)
            S->data[i][p] =  cos_theta * temp_col[i] + sin_theta * S->data[i][q];
   417b8:	e0bfb817 	ldw	r2,-288(fp)
   417bc:	1085883a 	add	r2,r2,r2
   417c0:	1085883a 	add	r2,r2,r2
   417c4:	e0ffac04 	addi	r3,fp,-336
   417c8:	1885883a 	add	r2,r3,r2
   417cc:	10802604 	addi	r2,r2,152
   417d0:	10c00017 	ldw	r3,0(r2)
   417d4:	e17fc917 	ldw	r5,-220(fp)
   417d8:	1809883a 	mov	r4,r3
   417dc:	0045c6c0 	call	45c6c <__mulsf3>
   417e0:	1007883a 	mov	r3,r2
   417e4:	1823883a 	mov	r17,r3
   417e8:	e43ffc17 	ldw	r16,-16(fp)
   417ec:	e0bfb817 	ldw	r2,-288(fp)
   417f0:	01400504 	movi	r5,20
   417f4:	1009883a 	mov	r4,r2
   417f8:	00451400 	call	45140 <__mulsi3>
   417fc:	1007883a 	mov	r3,r2
   41800:	e0bfb317 	ldw	r2,-308(fp)
   41804:	1885883a 	add	r2,r3,r2
   41808:	10800084 	addi	r2,r2,2
   4180c:	1085883a 	add	r2,r2,r2
   41810:	1085883a 	add	r2,r2,r2
   41814:	8085883a 	add	r2,r16,r2
   41818:	10c00017 	ldw	r3,0(r2)
   4181c:	e17fca17 	ldw	r5,-216(fp)
   41820:	1809883a 	mov	r4,r3
   41824:	0045c6c0 	call	45c6c <__mulsf3>
   41828:	1007883a 	mov	r3,r2
   4182c:	1805883a 	mov	r2,r3
   41830:	100b883a 	mov	r5,r2
   41834:	8809883a 	mov	r4,r17
   41838:	00451680 	call	45168 <__addsf3>
   4183c:	1007883a 	mov	r3,r2
   41840:	1823883a 	mov	r17,r3
   41844:	e43ffc17 	ldw	r16,-16(fp)
   41848:	e0bfb817 	ldw	r2,-288(fp)
   4184c:	01400504 	movi	r5,20
   41850:	1009883a 	mov	r4,r2
   41854:	00451400 	call	45140 <__mulsi3>
   41858:	1007883a 	mov	r3,r2
   4185c:	e0bfb217 	ldw	r2,-312(fp)
   41860:	1885883a 	add	r2,r3,r2
   41864:	10800084 	addi	r2,r2,2
   41868:	1085883a 	add	r2,r2,r2
   4186c:	1085883a 	add	r2,r2,r2
   41870:	8085883a 	add	r2,r16,r2
   41874:	14400015 	stw	r17,0(r2)
            S->data[i][q] = -sin_theta * temp_col[i] + cos_theta * S->data[i][q];
   41878:	e0bfca17 	ldw	r2,-216(fp)
   4187c:	10e0003c 	xorhi	r3,r2,32768
   41880:	e0bfb817 	ldw	r2,-288(fp)
   41884:	1085883a 	add	r2,r2,r2
   41888:	1085883a 	add	r2,r2,r2
   4188c:	e13fac04 	addi	r4,fp,-336
   41890:	2085883a 	add	r2,r4,r2
   41894:	10802604 	addi	r2,r2,152
   41898:	11000017 	ldw	r4,0(r2)
   4189c:	200b883a 	mov	r5,r4
   418a0:	1809883a 	mov	r4,r3
   418a4:	0045c6c0 	call	45c6c <__mulsf3>
   418a8:	1007883a 	mov	r3,r2
   418ac:	1823883a 	mov	r17,r3
   418b0:	e43ffc17 	ldw	r16,-16(fp)
   418b4:	e0bfb817 	ldw	r2,-288(fp)
   418b8:	01400504 	movi	r5,20
   418bc:	1009883a 	mov	r4,r2
   418c0:	00451400 	call	45140 <__mulsi3>
   418c4:	1007883a 	mov	r3,r2
   418c8:	e0bfb317 	ldw	r2,-308(fp)
   418cc:	1885883a 	add	r2,r3,r2
   418d0:	10800084 	addi	r2,r2,2
   418d4:	1085883a 	add	r2,r2,r2
   418d8:	1085883a 	add	r2,r2,r2
   418dc:	8085883a 	add	r2,r16,r2
   418e0:	10c00017 	ldw	r3,0(r2)
   418e4:	e17fc917 	ldw	r5,-220(fp)
   418e8:	1809883a 	mov	r4,r3
   418ec:	0045c6c0 	call	45c6c <__mulsf3>
   418f0:	1007883a 	mov	r3,r2
   418f4:	1805883a 	mov	r2,r3
   418f8:	100b883a 	mov	r5,r2
   418fc:	8809883a 	mov	r4,r17
   41900:	00451680 	call	45168 <__addsf3>
   41904:	1007883a 	mov	r3,r2
   41908:	1823883a 	mov	r17,r3
   4190c:	e43ffc17 	ldw	r16,-16(fp)
   41910:	e0bfb817 	ldw	r2,-288(fp)
   41914:	01400504 	movi	r5,20
   41918:	1009883a 	mov	r4,r2
   4191c:	00451400 	call	45140 <__mulsi3>
   41920:	1007883a 	mov	r3,r2
   41924:	e0bfb317 	ldw	r2,-308(fp)
   41928:	1885883a 	add	r2,r3,r2
   4192c:	10800084 	addi	r2,r2,2
   41930:	1085883a 	add	r2,r2,r2
   41934:	1085883a 	add	r2,r2,r2
   41938:	8085883a 	add	r2,r16,r2
   4193c:	14400015 	stw	r17,0(r2)
            U->data[i][q] = -sin_theta * Uip + cos_theta * Uiq;
        }

        // 右乘旋转矩阵（列操作）
        float temp_col[MAX_SIZE];
        for(int i=0; i<m; i++){
   41940:	e0bfb817 	ldw	r2,-288(fp)
   41944:	10800044 	addi	r2,r2,1
   41948:	e0bfb815 	stw	r2,-288(fp)
   4194c:	e0ffb817 	ldw	r3,-288(fp)
   41950:	e0bfc017 	ldw	r2,-256(fp)
   41954:	18bf8416 	blt	r3,r2,41768 <_exit+0xfffa175c>
            S->data[i][p] =  cos_theta * temp_col[i] + sin_theta * S->data[i][q];
            S->data[i][q] = -sin_theta * temp_col[i] + cos_theta * S->data[i][q];
        }

        // 更新V矩阵
        for(int j=0; j<n; j++){
   41958:	e03fb915 	stw	zero,-284(fp)
   4195c:	00005906 	br	41ac4 <svd_decomposition+0xbbc>
            float Vjp = V->data[j][p];
   41960:	e43ffd17 	ldw	r16,-12(fp)
   41964:	e0bfb917 	ldw	r2,-284(fp)
   41968:	01400504 	movi	r5,20
   4196c:	1009883a 	mov	r4,r2
   41970:	00451400 	call	45140 <__mulsi3>
   41974:	1007883a 	mov	r3,r2
   41978:	e0bfb217 	ldw	r2,-312(fp)
   4197c:	1885883a 	add	r2,r3,r2
   41980:	10800084 	addi	r2,r2,2
   41984:	1085883a 	add	r2,r2,r2
   41988:	1085883a 	add	r2,r2,r2
   4198c:	8085883a 	add	r2,r16,r2
   41990:	10800017 	ldw	r2,0(r2)
   41994:	e0bfcd15 	stw	r2,-204(fp)
            float Vjq = V->data[j][q];
   41998:	e43ffd17 	ldw	r16,-12(fp)
   4199c:	e0bfb917 	ldw	r2,-284(fp)
   419a0:	01400504 	movi	r5,20
   419a4:	1009883a 	mov	r4,r2
   419a8:	00451400 	call	45140 <__mulsi3>
   419ac:	1007883a 	mov	r3,r2
   419b0:	e0bfb317 	ldw	r2,-308(fp)
   419b4:	1885883a 	add	r2,r3,r2
   419b8:	10800084 	addi	r2,r2,2
   419bc:	1085883a 	add	r2,r2,r2
   419c0:	1085883a 	add	r2,r2,r2
   419c4:	8085883a 	add	r2,r16,r2
   419c8:	10800017 	ldw	r2,0(r2)
   419cc:	e0bfce15 	stw	r2,-200(fp)
            V->data[j][p] =  cos_theta * Vjp + sin_theta * Vjq;
   419d0:	e17fcd17 	ldw	r5,-204(fp)
   419d4:	e13fc917 	ldw	r4,-220(fp)
   419d8:	0045c6c0 	call	45c6c <__mulsf3>
   419dc:	1007883a 	mov	r3,r2
   419e0:	1821883a 	mov	r16,r3
   419e4:	e17fce17 	ldw	r5,-200(fp)
   419e8:	e13fca17 	ldw	r4,-216(fp)
   419ec:	0045c6c0 	call	45c6c <__mulsf3>
   419f0:	1007883a 	mov	r3,r2
   419f4:	1805883a 	mov	r2,r3
   419f8:	100b883a 	mov	r5,r2
   419fc:	8009883a 	mov	r4,r16
   41a00:	00451680 	call	45168 <__addsf3>
   41a04:	1007883a 	mov	r3,r2
   41a08:	1823883a 	mov	r17,r3
   41a0c:	e43ffd17 	ldw	r16,-12(fp)
   41a10:	e0bfb917 	ldw	r2,-284(fp)
   41a14:	01400504 	movi	r5,20
   41a18:	1009883a 	mov	r4,r2
   41a1c:	00451400 	call	45140 <__mulsi3>
   41a20:	1007883a 	mov	r3,r2
   41a24:	e0bfb217 	ldw	r2,-312(fp)
   41a28:	1885883a 	add	r2,r3,r2
   41a2c:	10800084 	addi	r2,r2,2
   41a30:	1085883a 	add	r2,r2,r2
   41a34:	1085883a 	add	r2,r2,r2
   41a38:	8085883a 	add	r2,r16,r2
   41a3c:	14400015 	stw	r17,0(r2)
            V->data[j][q] = -sin_theta * Vjp + cos_theta * Vjq;
   41a40:	e0bfca17 	ldw	r2,-216(fp)
   41a44:	10a0003c 	xorhi	r2,r2,32768
   41a48:	e17fcd17 	ldw	r5,-204(fp)
   41a4c:	1009883a 	mov	r4,r2
   41a50:	0045c6c0 	call	45c6c <__mulsf3>
   41a54:	1007883a 	mov	r3,r2
   41a58:	1821883a 	mov	r16,r3
   41a5c:	e17fce17 	ldw	r5,-200(fp)
   41a60:	e13fc917 	ldw	r4,-220(fp)
   41a64:	0045c6c0 	call	45c6c <__mulsf3>
   41a68:	1007883a 	mov	r3,r2
   41a6c:	1805883a 	mov	r2,r3
   41a70:	100b883a 	mov	r5,r2
   41a74:	8009883a 	mov	r4,r16
   41a78:	00451680 	call	45168 <__addsf3>
   41a7c:	1007883a 	mov	r3,r2
   41a80:	1823883a 	mov	r17,r3
   41a84:	e43ffd17 	ldw	r16,-12(fp)
   41a88:	e0bfb917 	ldw	r2,-284(fp)
   41a8c:	01400504 	movi	r5,20
   41a90:	1009883a 	mov	r4,r2
   41a94:	00451400 	call	45140 <__mulsi3>
   41a98:	1007883a 	mov	r3,r2
   41a9c:	e0bfb317 	ldw	r2,-308(fp)
   41aa0:	1885883a 	add	r2,r3,r2
   41aa4:	10800084 	addi	r2,r2,2
   41aa8:	1085883a 	add	r2,r2,r2
   41aac:	1085883a 	add	r2,r2,r2
   41ab0:	8085883a 	add	r2,r16,r2
   41ab4:	14400015 	stw	r17,0(r2)
            S->data[i][p] =  cos_theta * temp_col[i] + sin_theta * S->data[i][q];
            S->data[i][q] = -sin_theta * temp_col[i] + cos_theta * S->data[i][q];
        }

        // 更新V矩阵
        for(int j=0; j<n; j++){
   41ab8:	e0bfb917 	ldw	r2,-284(fp)
   41abc:	10800044 	addi	r2,r2,1
   41ac0:	e0bfb915 	stw	r2,-284(fp)
   41ac4:	e0ffb917 	ldw	r3,-284(fp)
   41ac8:	e0bfc117 	ldw	r2,-252(fp)
   41acc:	18bfa416 	blt	r3,r2,41960 <_exit+0xfffa1954>
            V->data[i][j] = (i==j && i<n) ? 1.0f : 0.0f;
        }
    }

    // 改进的雅可比迭代
    for(int iter=0; iter<MAX_ITER; iter++){
   41ad0:	e0bfb017 	ldw	r2,-320(fp)
   41ad4:	10800044 	addi	r2,r2,1
   41ad8:	e0bfb015 	stw	r2,-320(fp)
   41adc:	e0bfb017 	ldw	r2,-320(fp)
   41ae0:	10801910 	cmplti	r2,r2,100
   41ae4:	103d991e 	bne	r2,zero,4114c <_exit+0xfffa1140>
   41ae8:	00000106 	br	41af0 <svd_decomposition+0xbe8>
                    max_off = off_diag;
                    p = i; q = j;
                }
            }
        }
        if(max_off < TOLERANCE) break;
   41aec:	0001883a 	nop
            V->data[j][q] = -sin_theta * Vjp + cos_theta * Vjq;
        }
    }

    // 确保奇异值非负
    for(int i=0; i<size; i++){
   41af0:	e03fba15 	stw	zero,-280(fp)
   41af4:	00004306 	br	41c04 <svd_decomposition+0xcfc>
        if(S->data[i][i] < 0){
   41af8:	e43ffc17 	ldw	r16,-16(fp)
   41afc:	e0bfba17 	ldw	r2,-280(fp)
   41b00:	01401504 	movi	r5,84
   41b04:	1009883a 	mov	r4,r2
   41b08:	00451400 	call	45140 <__mulsi3>
   41b0c:	8085883a 	add	r2,r16,r2
   41b10:	10800204 	addi	r2,r2,8
   41b14:	10c00017 	ldw	r3,0(r2)
   41b18:	000b883a 	mov	r5,zero
   41b1c:	1809883a 	mov	r4,r3
   41b20:	0045ba40 	call	45ba4 <__lesf2>
   41b24:	1000340e 	bge	r2,zero,41bf8 <svd_decomposition+0xcf0>
            S->data[i][i] = -S->data[i][i];
   41b28:	e43ffc17 	ldw	r16,-16(fp)
   41b2c:	e0bfba17 	ldw	r2,-280(fp)
   41b30:	01401504 	movi	r5,84
   41b34:	1009883a 	mov	r4,r2
   41b38:	00451400 	call	45140 <__mulsi3>
   41b3c:	8085883a 	add	r2,r16,r2
   41b40:	10c00204 	addi	r3,r2,8
   41b44:	18800017 	ldw	r2,0(r3)
   41b48:	1420003c 	xorhi	r16,r2,32768
   41b4c:	e47ffc17 	ldw	r17,-16(fp)
   41b50:	e0bfba17 	ldw	r2,-280(fp)
   41b54:	01401504 	movi	r5,84
   41b58:	1009883a 	mov	r4,r2
   41b5c:	00451400 	call	45140 <__mulsi3>
   41b60:	8885883a 	add	r2,r17,r2
   41b64:	10800204 	addi	r2,r2,8
   41b68:	14000015 	stw	r16,0(r2)
            for(int j=0; j<m; j++)
   41b6c:	e03fbb15 	stw	zero,-276(fp)
   41b70:	00001e06 	br	41bec <svd_decomposition+0xce4>
                U->data[j][i] = -U->data[j][i];
   41b74:	e43ffb17 	ldw	r16,-20(fp)
   41b78:	e0bfbb17 	ldw	r2,-276(fp)
   41b7c:	01400504 	movi	r5,20
   41b80:	1009883a 	mov	r4,r2
   41b84:	00451400 	call	45140 <__mulsi3>
   41b88:	1007883a 	mov	r3,r2
   41b8c:	e0bfba17 	ldw	r2,-280(fp)
   41b90:	1885883a 	add	r2,r3,r2
   41b94:	10800084 	addi	r2,r2,2
   41b98:	1085883a 	add	r2,r2,r2
   41b9c:	1085883a 	add	r2,r2,r2
   41ba0:	8087883a 	add	r3,r16,r2
   41ba4:	18800017 	ldw	r2,0(r3)
   41ba8:	1420003c 	xorhi	r16,r2,32768
   41bac:	e47ffb17 	ldw	r17,-20(fp)
   41bb0:	e0bfbb17 	ldw	r2,-276(fp)
   41bb4:	01400504 	movi	r5,20
   41bb8:	1009883a 	mov	r4,r2
   41bbc:	00451400 	call	45140 <__mulsi3>
   41bc0:	1007883a 	mov	r3,r2
   41bc4:	e0bfba17 	ldw	r2,-280(fp)
   41bc8:	1885883a 	add	r2,r3,r2
   41bcc:	10800084 	addi	r2,r2,2
   41bd0:	1085883a 	add	r2,r2,r2
   41bd4:	1085883a 	add	r2,r2,r2
   41bd8:	8885883a 	add	r2,r17,r2
   41bdc:	14000015 	stw	r16,0(r2)

    // 确保奇异值非负
    for(int i=0; i<size; i++){
        if(S->data[i][i] < 0){
            S->data[i][i] = -S->data[i][i];
            for(int j=0; j<m; j++)
   41be0:	e0bfbb17 	ldw	r2,-276(fp)
   41be4:	10800044 	addi	r2,r2,1
   41be8:	e0bfbb15 	stw	r2,-276(fp)
   41bec:	e0ffbb17 	ldw	r3,-276(fp)
   41bf0:	e0bfc017 	ldw	r2,-256(fp)
   41bf4:	18bfdf16 	blt	r3,r2,41b74 <_exit+0xfffa1b68>
            V->data[j][q] = -sin_theta * Vjp + cos_theta * Vjq;
        }
    }

    // 确保奇异值非负
    for(int i=0; i<size; i++){
   41bf8:	e0bfba17 	ldw	r2,-280(fp)
   41bfc:	10800044 	addi	r2,r2,1
   41c00:	e0bfba15 	stw	r2,-280(fp)
   41c04:	e0ffba17 	ldw	r3,-280(fp)
   41c08:	e0bfc217 	ldw	r2,-248(fp)
   41c0c:	18bfba16 	blt	r3,r2,41af8 <_exit+0xfffa1aec>
                U->data[j][i] = -U->data[j][i];
        }
    }

    // 奇异值排序（稳定冒泡排序）
    for(int i=0; i<size; i++){
   41c10:	e03fbc15 	stw	zero,-272(fp)
   41c14:	0000bf06 	br	41f14 <svd_decomposition+0x100c>
        for(int j=i+1; j<size; j++){
   41c18:	e0bfbc17 	ldw	r2,-272(fp)
   41c1c:	10800044 	addi	r2,r2,1
   41c20:	e0bfbd15 	stw	r2,-268(fp)
   41c24:	0000b506 	br	41efc <svd_decomposition+0xff4>
            if(S->data[i][i] < S->data[j][j]){
   41c28:	e43ffc17 	ldw	r16,-16(fp)
   41c2c:	e0bfbc17 	ldw	r2,-272(fp)
   41c30:	01401504 	movi	r5,84
   41c34:	1009883a 	mov	r4,r2
   41c38:	00451400 	call	45140 <__mulsi3>
   41c3c:	8085883a 	add	r2,r16,r2
   41c40:	10800204 	addi	r2,r2,8
   41c44:	14400017 	ldw	r17,0(r2)
   41c48:	e43ffc17 	ldw	r16,-16(fp)
   41c4c:	e0bfbd17 	ldw	r2,-268(fp)
   41c50:	01401504 	movi	r5,84
   41c54:	1009883a 	mov	r4,r2
   41c58:	00451400 	call	45140 <__mulsi3>
   41c5c:	8085883a 	add	r2,r16,r2
   41c60:	10800204 	addi	r2,r2,8
   41c64:	10c00017 	ldw	r3,0(r2)
   41c68:	180b883a 	mov	r5,r3
   41c6c:	8809883a 	mov	r4,r17
   41c70:	0045ba40 	call	45ba4 <__lesf2>
   41c74:	10009e0e 	bge	r2,zero,41ef0 <svd_decomposition+0xfe8>
                // 交换奇异值
                float s_val = S->data[i][i];
   41c78:	e43ffc17 	ldw	r16,-16(fp)
   41c7c:	e0bfbc17 	ldw	r2,-272(fp)
   41c80:	01401504 	movi	r5,84
   41c84:	1009883a 	mov	r4,r2
   41c88:	00451400 	call	45140 <__mulsi3>
   41c8c:	8085883a 	add	r2,r16,r2
   41c90:	10800204 	addi	r2,r2,8
   41c94:	10800017 	ldw	r2,0(r2)
   41c98:	e0bfcf15 	stw	r2,-196(fp)
                S->data[i][i] = S->data[j][j];
   41c9c:	e43ffc17 	ldw	r16,-16(fp)
   41ca0:	e0bfbd17 	ldw	r2,-268(fp)
   41ca4:	01401504 	movi	r5,84
   41ca8:	1009883a 	mov	r4,r2
   41cac:	00451400 	call	45140 <__mulsi3>
   41cb0:	8085883a 	add	r2,r16,r2
   41cb4:	10800204 	addi	r2,r2,8
   41cb8:	14000017 	ldw	r16,0(r2)
   41cbc:	e47ffc17 	ldw	r17,-16(fp)
   41cc0:	e0bfbc17 	ldw	r2,-272(fp)
   41cc4:	01401504 	movi	r5,84
   41cc8:	1009883a 	mov	r4,r2
   41ccc:	00451400 	call	45140 <__mulsi3>
   41cd0:	8885883a 	add	r2,r17,r2
   41cd4:	10800204 	addi	r2,r2,8
   41cd8:	14000015 	stw	r16,0(r2)
                S->data[j][j] = s_val;
   41cdc:	e43ffc17 	ldw	r16,-16(fp)
   41ce0:	e0bfbd17 	ldw	r2,-268(fp)
   41ce4:	01401504 	movi	r5,84
   41ce8:	1009883a 	mov	r4,r2
   41cec:	00451400 	call	45140 <__mulsi3>
   41cf0:	8085883a 	add	r2,r16,r2
   41cf4:	10800204 	addi	r2,r2,8
   41cf8:	e0ffcf17 	ldw	r3,-196(fp)
   41cfc:	10c00015 	stw	r3,0(r2)

                // 交换U的列
                for(int k=0; k<m; k++){
   41d00:	e03fbe15 	stw	zero,-264(fp)
   41d04:	00003906 	br	41dec <svd_decomposition+0xee4>
                    float tmp = U->data[k][i];
   41d08:	e43ffb17 	ldw	r16,-20(fp)
   41d0c:	e0bfbe17 	ldw	r2,-264(fp)
   41d10:	01400504 	movi	r5,20
   41d14:	1009883a 	mov	r4,r2
   41d18:	00451400 	call	45140 <__mulsi3>
   41d1c:	1007883a 	mov	r3,r2
   41d20:	e0bfbc17 	ldw	r2,-272(fp)
   41d24:	1885883a 	add	r2,r3,r2
   41d28:	10800084 	addi	r2,r2,2
   41d2c:	1085883a 	add	r2,r2,r2
   41d30:	1085883a 	add	r2,r2,r2
   41d34:	8085883a 	add	r2,r16,r2
   41d38:	10800017 	ldw	r2,0(r2)
   41d3c:	e0bfd015 	stw	r2,-192(fp)
                    U->data[k][i] = U->data[k][j];
   41d40:	e43ffb17 	ldw	r16,-20(fp)
   41d44:	e0bfbe17 	ldw	r2,-264(fp)
   41d48:	01400504 	movi	r5,20
   41d4c:	1009883a 	mov	r4,r2
   41d50:	00451400 	call	45140 <__mulsi3>
   41d54:	1007883a 	mov	r3,r2
   41d58:	e0bfbd17 	ldw	r2,-268(fp)
   41d5c:	1885883a 	add	r2,r3,r2
   41d60:	10800084 	addi	r2,r2,2
   41d64:	1085883a 	add	r2,r2,r2
   41d68:	1085883a 	add	r2,r2,r2
   41d6c:	8085883a 	add	r2,r16,r2
   41d70:	14000017 	ldw	r16,0(r2)
   41d74:	e47ffb17 	ldw	r17,-20(fp)
   41d78:	e0bfbe17 	ldw	r2,-264(fp)
   41d7c:	01400504 	movi	r5,20
   41d80:	1009883a 	mov	r4,r2
   41d84:	00451400 	call	45140 <__mulsi3>
   41d88:	1007883a 	mov	r3,r2
   41d8c:	e0bfbc17 	ldw	r2,-272(fp)
   41d90:	1885883a 	add	r2,r3,r2
   41d94:	10800084 	addi	r2,r2,2
   41d98:	1085883a 	add	r2,r2,r2
   41d9c:	1085883a 	add	r2,r2,r2
   41da0:	8885883a 	add	r2,r17,r2
   41da4:	14000015 	stw	r16,0(r2)
                    U->data[k][j] = tmp;
   41da8:	e43ffb17 	ldw	r16,-20(fp)
   41dac:	e0bfbe17 	ldw	r2,-264(fp)
   41db0:	01400504 	movi	r5,20
   41db4:	1009883a 	mov	r4,r2
   41db8:	00451400 	call	45140 <__mulsi3>
   41dbc:	1007883a 	mov	r3,r2
   41dc0:	e0bfbd17 	ldw	r2,-268(fp)
   41dc4:	1885883a 	add	r2,r3,r2
   41dc8:	10800084 	addi	r2,r2,2
   41dcc:	1085883a 	add	r2,r2,r2
   41dd0:	1085883a 	add	r2,r2,r2
   41dd4:	8085883a 	add	r2,r16,r2
   41dd8:	e0ffd017 	ldw	r3,-192(fp)
   41ddc:	10c00015 	stw	r3,0(r2)
                float s_val = S->data[i][i];
                S->data[i][i] = S->data[j][j];
                S->data[j][j] = s_val;

                // 交换U的列
                for(int k=0; k<m; k++){
   41de0:	e0bfbe17 	ldw	r2,-264(fp)
   41de4:	10800044 	addi	r2,r2,1
   41de8:	e0bfbe15 	stw	r2,-264(fp)
   41dec:	e0ffbe17 	ldw	r3,-264(fp)
   41df0:	e0bfc017 	ldw	r2,-256(fp)
   41df4:	18bfc416 	blt	r3,r2,41d08 <_exit+0xfffa1cfc>
                    U->data[k][i] = U->data[k][j];
                    U->data[k][j] = tmp;
                }

                // 交换V的列
                for(int k=0; k<n; k++){
   41df8:	e03fbf15 	stw	zero,-260(fp)
   41dfc:	00003906 	br	41ee4 <svd_decomposition+0xfdc>
                    float tmp = V->data[k][i];
   41e00:	e43ffd17 	ldw	r16,-12(fp)
   41e04:	e0bfbf17 	ldw	r2,-260(fp)
   41e08:	01400504 	movi	r5,20
   41e0c:	1009883a 	mov	r4,r2
   41e10:	00451400 	call	45140 <__mulsi3>
   41e14:	1007883a 	mov	r3,r2
   41e18:	e0bfbc17 	ldw	r2,-272(fp)
   41e1c:	1885883a 	add	r2,r3,r2
   41e20:	10800084 	addi	r2,r2,2
   41e24:	1085883a 	add	r2,r2,r2
   41e28:	1085883a 	add	r2,r2,r2
   41e2c:	8085883a 	add	r2,r16,r2
   41e30:	10800017 	ldw	r2,0(r2)
   41e34:	e0bfd115 	stw	r2,-188(fp)
                    V->data[k][i] = V->data[k][j];
   41e38:	e43ffd17 	ldw	r16,-12(fp)
   41e3c:	e0bfbf17 	ldw	r2,-260(fp)
   41e40:	01400504 	movi	r5,20
   41e44:	1009883a 	mov	r4,r2
   41e48:	00451400 	call	45140 <__mulsi3>
   41e4c:	1007883a 	mov	r3,r2
   41e50:	e0bfbd17 	ldw	r2,-268(fp)
   41e54:	1885883a 	add	r2,r3,r2
   41e58:	10800084 	addi	r2,r2,2
   41e5c:	1085883a 	add	r2,r2,r2
   41e60:	1085883a 	add	r2,r2,r2
   41e64:	8085883a 	add	r2,r16,r2
   41e68:	14000017 	ldw	r16,0(r2)
   41e6c:	e47ffd17 	ldw	r17,-12(fp)
   41e70:	e0bfbf17 	ldw	r2,-260(fp)
   41e74:	01400504 	movi	r5,20
   41e78:	1009883a 	mov	r4,r2
   41e7c:	00451400 	call	45140 <__mulsi3>
   41e80:	1007883a 	mov	r3,r2
   41e84:	e0bfbc17 	ldw	r2,-272(fp)
   41e88:	1885883a 	add	r2,r3,r2
   41e8c:	10800084 	addi	r2,r2,2
   41e90:	1085883a 	add	r2,r2,r2
   41e94:	1085883a 	add	r2,r2,r2
   41e98:	8885883a 	add	r2,r17,r2
   41e9c:	14000015 	stw	r16,0(r2)
                    V->data[k][j] = tmp;
   41ea0:	e43ffd17 	ldw	r16,-12(fp)
   41ea4:	e0bfbf17 	ldw	r2,-260(fp)
   41ea8:	01400504 	movi	r5,20
   41eac:	1009883a 	mov	r4,r2
   41eb0:	00451400 	call	45140 <__mulsi3>
   41eb4:	1007883a 	mov	r3,r2
   41eb8:	e0bfbd17 	ldw	r2,-268(fp)
   41ebc:	1885883a 	add	r2,r3,r2
   41ec0:	10800084 	addi	r2,r2,2
   41ec4:	1085883a 	add	r2,r2,r2
   41ec8:	1085883a 	add	r2,r2,r2
   41ecc:	8085883a 	add	r2,r16,r2
   41ed0:	e0ffd117 	ldw	r3,-188(fp)
   41ed4:	10c00015 	stw	r3,0(r2)
                    U->data[k][i] = U->data[k][j];
                    U->data[k][j] = tmp;
                }

                // 交换V的列
                for(int k=0; k<n; k++){
   41ed8:	e0bfbf17 	ldw	r2,-260(fp)
   41edc:	10800044 	addi	r2,r2,1
   41ee0:	e0bfbf15 	stw	r2,-260(fp)
   41ee4:	e0ffbf17 	ldw	r3,-260(fp)
   41ee8:	e0bfc117 	ldw	r2,-252(fp)
   41eec:	18bfc416 	blt	r3,r2,41e00 <_exit+0xfffa1df4>
        }
    }

    // 奇异值排序（稳定冒泡排序）
    for(int i=0; i<size; i++){
        for(int j=i+1; j<size; j++){
   41ef0:	e0bfbd17 	ldw	r2,-268(fp)
   41ef4:	10800044 	addi	r2,r2,1
   41ef8:	e0bfbd15 	stw	r2,-268(fp)
   41efc:	e0ffbd17 	ldw	r3,-268(fp)
   41f00:	e0bfc217 	ldw	r2,-248(fp)
   41f04:	18bf4816 	blt	r3,r2,41c28 <_exit+0xfffa1c1c>
                U->data[j][i] = -U->data[j][i];
        }
    }

    // 奇异值排序（稳定冒泡排序）
    for(int i=0; i<size; i++){
   41f08:	e0bfbc17 	ldw	r2,-272(fp)
   41f0c:	10800044 	addi	r2,r2,1
   41f10:	e0bfbc15 	stw	r2,-272(fp)
   41f14:	e0ffbc17 	ldw	r3,-272(fp)
   41f18:	e0bfc217 	ldw	r2,-248(fp)
   41f1c:	18bf3e16 	blt	r3,r2,41c18 <_exit+0xfffa1c0c>
                    V->data[k][j] = tmp;
                }
            }
        }
    }
}
   41f20:	0001883a 	nop
   41f24:	e6fffe04 	addi	sp,fp,-8
   41f28:	dfc00317 	ldw	ra,12(sp)
   41f2c:	df000217 	ldw	fp,8(sp)
   41f30:	dc400117 	ldw	r17,4(sp)
   41f34:	dc000017 	ldw	r16,0(sp)
   41f38:	dec00404 	addi	sp,sp,16
   41f3c:	f800283a 	ret

00041f40 <matrix_print>:

void matrix_print(const Matrix *mat)
{
   41f40:	defffa04 	addi	sp,sp,-24
   41f44:	dfc00515 	stw	ra,20(sp)
   41f48:	df000415 	stw	fp,16(sp)
   41f4c:	dc000315 	stw	r16,12(sp)
   41f50:	df000404 	addi	fp,sp,16
   41f54:	e13ffe15 	stw	r4,-8(fp)
    for (int i = 0; i < mat->rows; i++)
   41f58:	e03ffc15 	stw	zero,-16(fp)
   41f5c:	00002406 	br	41ff0 <matrix_print+0xb0>
    {
        for (int j = 0; j < mat->cols; j++)
   41f60:	e03ffd15 	stw	zero,-12(fp)
   41f64:	00001906 	br	41fcc <matrix_print+0x8c>
        {
            printf("%8.3f ", mat->data[i][j]); // 通过JTAG UART输出
   41f68:	e43ffe17 	ldw	r16,-8(fp)
   41f6c:	e0bffc17 	ldw	r2,-16(fp)
   41f70:	01400504 	movi	r5,20
   41f74:	1009883a 	mov	r4,r2
   41f78:	00451400 	call	45140 <__mulsi3>
   41f7c:	1007883a 	mov	r3,r2
   41f80:	e0bffd17 	ldw	r2,-12(fp)
   41f84:	1885883a 	add	r2,r3,r2
   41f88:	10800084 	addi	r2,r2,2
   41f8c:	1085883a 	add	r2,r2,r2
   41f90:	1085883a 	add	r2,r2,r2
   41f94:	8085883a 	add	r2,r16,r2
   41f98:	10c00017 	ldw	r3,0(r2)
   41f9c:	1809883a 	mov	r4,r3
   41fa0:	0048cc80 	call	48cc8 <__extendsfdf2>
   41fa4:	100d883a 	mov	r6,r2
   41fa8:	180f883a 	mov	r7,r3
   41fac:	300b883a 	mov	r5,r6
   41fb0:	380d883a 	mov	r6,r7
   41fb4:	010001b4 	movhi	r4,6
   41fb8:	213edd04 	addi	r4,r4,-1164
   41fbc:	004913c0 	call	4913c <printf>

void matrix_print(const Matrix *mat)
{
    for (int i = 0; i < mat->rows; i++)
    {
        for (int j = 0; j < mat->cols; j++)
   41fc0:	e0bffd17 	ldw	r2,-12(fp)
   41fc4:	10800044 	addi	r2,r2,1
   41fc8:	e0bffd15 	stw	r2,-12(fp)
   41fcc:	e0bffe17 	ldw	r2,-8(fp)
   41fd0:	10800117 	ldw	r2,4(r2)
   41fd4:	e0fffd17 	ldw	r3,-12(fp)
   41fd8:	18bfe316 	blt	r3,r2,41f68 <_exit+0xfffa1f5c>
        {
            printf("%8.3f ", mat->data[i][j]); // 通过JTAG UART输出
        }
        printf("\n");
   41fdc:	01000284 	movi	r4,10
   41fe0:	00491800 	call	49180 <putchar>
    }
}

void matrix_print(const Matrix *mat)
{
    for (int i = 0; i < mat->rows; i++)
   41fe4:	e0bffc17 	ldw	r2,-16(fp)
   41fe8:	10800044 	addi	r2,r2,1
   41fec:	e0bffc15 	stw	r2,-16(fp)
   41ff0:	e0bffe17 	ldw	r2,-8(fp)
   41ff4:	10800017 	ldw	r2,0(r2)
   41ff8:	e0fffc17 	ldw	r3,-16(fp)
   41ffc:	18bfd816 	blt	r3,r2,41f60 <_exit+0xfffa1f54>
        {
            printf("%8.3f ", mat->data[i][j]); // 通过JTAG UART输出
        }
        printf("\n");
    }
}
   42000:	0001883a 	nop
   42004:	e6ffff04 	addi	sp,fp,-4
   42008:	dfc00217 	ldw	ra,8(sp)
   4200c:	df000117 	ldw	fp,4(sp)
   42010:	dc000017 	ldw	r16,0(sp)
   42014:	dec00304 	addi	sp,sp,12
   42018:	f800283a 	ret

0004201c <main>:
alt_u8 i3=0;
alt_u8 mode = 0;
alt_u8 matrix_done = 0;  // [MATRIX] 标记矩阵是否已执行

// 主函数
int main(void) {
   4201c:	def4fb04 	addi	sp,sp,-11284
   42020:	dfcb0415 	stw	ra,11280(sp)
   42024:	df0b0315 	stw	fp,11276(sp)
   42028:	dc0b0215 	stw	r16,11272(sp)
   4202c:	df0b0304 	addi	fp,sp,11276
    IRQ_Init(); // 初始化 PIO 中断
   42030:	00425d40 	call	425d4 <IRQ_Init>
    lcd_init(); // LCD 初始化
   42034:	0042cec0 	call	42cec <lcd_init>
    select_xy(0, 0);
   42038:	000b883a 	mov	r5,zero
   4203c:	0009883a 	mov	r4,zero
   42040:	0042e380 	call	42e38 <select_xy>
    lcd_prints(lcd_string1);
   42044:	010001b4 	movhi	r4,6
   42048:	21020c04 	addi	r4,r4,2096
   4204c:	0042dd00 	call	42dd0 <lcd_prints>
    Timer_Initial(); // 初始化定时器中断
   42050:	0042aac0 	call	42aac <Timer_Initial>
    IOWR_ALTERA_AVALON_PIO_DATA(LEDR_BASE, 0x0); // 初始化 LEDR 全灭
   42054:	0007883a 	mov	r3,zero
   42058:	00800334 	movhi	r2,12
   4205c:	10842404 	addi	r2,r2,4240
   42060:	10c00035 	stwio	r3,0(r2)
	Matrix A, B, C, invA, U, S, V;
    while (1) {
    	 // 读取 sw3 决定模式
    	    if ((IORD_ALTERA_AVALON_PIO_DATA(SLIDERS_BASE) & 0x8) != 0)
   42064:	00800334 	movhi	r2,12
   42068:	10841404 	addi	r2,r2,4176
   4206c:	10800037 	ldwio	r2,0(r2)
   42070:	1080020c 	andi	r2,r2,8
   42074:	10000326 	beq	r2,zero,42084 <main+0x68>
    	        mode = 1; // 矩阵运算模式
   42078:	00800044 	movi	r2,1
   4207c:	d0a72e05 	stb	r2,-25416(gp)
   42080:	00000106 	br	42088 <main+0x6c>
    	     else
    	        mode = 0; // 闹钟模式
   42084:	d0272e05 	stb	zero,-25416(gp)
    	    if (mode == 0)
   42088:	d0a72e03 	ldbu	r2,-25416(gp)
   4208c:	10803fcc 	andi	r2,r2,255
   42090:	1000811e 	bne	r2,zero,42298 <main+0x27c>
    	    {
    	    	//时间到――LCD
					if(actual_time-alarm_time>5)
   42094:	d0e72917 	ldw	r3,-25436(gp)
   42098:	d0a00017 	ldw	r2,-32768(gp)
   4209c:	1885c83a 	sub	r2,r3,r2
   420a0:	108001b0 	cmpltui	r2,r2,6
   420a4:	1000051e 	bne	r2,zero,420bc <main+0xa0>
					{
						i1=1;
   420a8:	00800044 	movi	r2,1
   420ac:	d0a72d45 	stb	r2,-25419(gp)
						lcd_active=0;
   420b0:	d0272b15 	stw	zero,-25428(gp)
						i3=0;
   420b4:	d0272dc5 	stb	zero,-25417(gp)
   420b8:	00000306 	br	420c8 <main+0xac>
					}
					else i1=i2=0;
   420bc:	d0272d85 	stb	zero,-25418(gp)
   420c0:	d0a72d83 	ldbu	r2,-25418(gp)
   420c4:	d0a72d45 	stb	r2,-25419(gp)
					if(lcd_active==0&&i1==1&&i2==0)
   420c8:	d0a72b17 	ldw	r2,-25428(gp)
   420cc:	1000151e 	bne	r2,zero,42124 <main+0x108>
   420d0:	d0a72d43 	ldbu	r2,-25419(gp)
   420d4:	10803fcc 	andi	r2,r2,255
   420d8:	10800058 	cmpnei	r2,r2,1
   420dc:	1000111e 	bne	r2,zero,42124 <main+0x108>
   420e0:	d0a72d83 	ldbu	r2,-25418(gp)
   420e4:	10803fcc 	andi	r2,r2,255
   420e8:	10000e1e 	bne	r2,zero,42124 <main+0x108>
					{
						IOWR_ALTERA_AVALON_LCD_16207_COMMAND(LCD_16207_0_BASE, 0x01);   //清屏
   420ec:	00c00044 	movi	r3,1
   420f0:	00800334 	movhi	r2,12
   420f4:	10842804 	addi	r2,r2,4256
   420f8:	10c00035 	stwio	r3,0(r2)
						usleep(5000);
   420fc:	0104e204 	movi	r4,5000
   42100:	005d1f00 	call	5d1f0 <usleep>
						select_xy(0, 0);
   42104:	000b883a 	mov	r5,zero
   42108:	0009883a 	mov	r4,zero
   4210c:	0042e380 	call	42e38 <select_xy>
						lcd_prints(lcd_string1);
   42110:	010001b4 	movhi	r4,6
   42114:	21020c04 	addi	r4,r4,2096
   42118:	0042dd00 	call	42dd0 <lcd_prints>

						i2=1;
   4211c:	00800044 	movi	r2,1
   42120:	d0a72d85 	stb	r2,-25418(gp)
					}
					if(lcd_flag==1 && lcd_active==1)//如果时间到了，LCD显示TIME
   42124:	d0a72d03 	ldbu	r2,-25420(gp)
   42128:	10803fcc 	andi	r2,r2,255
   4212c:	10800058 	cmpnei	r2,r2,1
   42130:	1000111e 	bne	r2,zero,42178 <main+0x15c>
   42134:	d0a72b17 	ldw	r2,-25428(gp)
   42138:	10800058 	cmpnei	r2,r2,1
   4213c:	10000e1e 	bne	r2,zero,42178 <main+0x15c>
					{
						IOWR_ALTERA_AVALON_LCD_16207_COMMAND(LCD_16207_0_BASE, 0x01);   //清屏
   42140:	00c00044 	movi	r3,1
   42144:	00800334 	movhi	r2,12
   42148:	10842804 	addi	r2,r2,4256
   4214c:	10c00035 	stwio	r3,0(r2)
						usleep(5000);
   42150:	0104e204 	movi	r4,5000
   42154:	005d1f00 	call	5d1f0 <usleep>
						select_xy(0,0);
   42158:	000b883a 	mov	r5,zero
   4215c:	0009883a 	mov	r4,zero
   42160:	0042e380 	call	42e38 <select_xy>
						lcd_prints(lcd_string2);
   42164:	010001b4 	movhi	r4,6
   42168:	21021004 	addi	r4,r4,2112
   4216c:	0042dd00 	call	42dd0 <lcd_prints>
						lcd_flag=0;
   42170:	d0272d05 	stb	zero,-25420(gp)
						lcd_active=0;
   42174:	d0272b15 	stw	zero,-25428(gp)
					}
    	    	        // 时间到――红灯
    	    	        if (alarm_active != 0)
   42178:	d0a72a17 	ldw	r2,-25432(gp)
   4217c:	10000726 	beq	r2,zero,4219c <main+0x180>
    	    	        {
    	    	            IOWR_ALTERA_AVALON_PIO_DATA(LEDR_BASE, 0x3); // 如果时间到，红灯亮 5 秒
   42180:	00c000c4 	movi	r3,3
   42184:	00800334 	movhi	r2,12
   42188:	10842404 	addi	r2,r2,4240
   4218c:	10c00035 	stwio	r3,0(r2)
    	    	            lcd_flag = 1; // LCD 显示
   42190:	00800044 	movi	r2,1
   42194:	d0a72d05 	stb	r2,-25420(gp)
   42198:	00000406 	br	421ac <main+0x190>
    	    	        }
    	    	        else
    	    	           IOWR_ALTERA_AVALON_PIO_DATA(LEDR_BASE, 0x0);
   4219c:	0007883a 	mov	r3,zero
   421a0:	00800334 	movhi	r2,12
   421a4:	10842404 	addi	r2,r2,4240
   421a8:	10c00035 	stwio	r3,0(r2)
    	    	        // 设置 sliders 状态检测
					if (((IORD_ALTERA_AVALON_PIO_DATA(SLIDERS_BASE)) & 1) != 0)
   421ac:	00800334 	movhi	r2,12
   421b0:	10841404 	addi	r2,r2,4176
   421b4:	10800037 	ldwio	r2,0(r2)
   421b8:	1080004c 	andi	r2,r2,1
   421bc:	10001726 	beq	r2,zero,4221c <main+0x200>
					{ // 闹钟开关打开
						IOWR_ALTERA_AVALON_PIO_DATA(LEDG_BASE, 0x1); // 绿灯开
   421c0:	00c00044 	movi	r3,1
   421c4:	00800334 	movhi	r2,12
   421c8:	10842004 	addi	r2,r2,4224
   421cc:	10c00035 	stwio	r3,0(r2)
						if (((actual_time - alarm_time) >= 0) && (actual_time - alarm_time) <= 5)
   421d0:	d0e72917 	ldw	r3,-25436(gp)
   421d4:	d0a00017 	ldw	r2,-32768(gp)
   421d8:	1885c83a 	sub	r2,r3,r2
   421dc:	108001a8 	cmpgeui	r2,r2,6
   421e0:	10000a1e 	bne	r2,zero,4220c <main+0x1f0>
						{
							alarm_active = 1; // 红灯亮 5 秒
   421e4:	00800044 	movi	r2,1
   421e8:	d0a72a15 	stw	r2,-25432(gp)
							if(i3==0)
   421ec:	d0a72dc3 	ldbu	r2,-25417(gp)
   421f0:	10803fcc 	andi	r2,r2,255
   421f4:	10000e1e 	bne	r2,zero,42230 <main+0x214>
							{
								lcd_active=1;
   421f8:	00800044 	movi	r2,1
   421fc:	d0a72b15 	stw	r2,-25428(gp)
								i3=1;
   42200:	00800044 	movi	r2,1
   42204:	d0a72dc5 	stb	r2,-25417(gp)
   42208:	00000906 	br	42230 <main+0x214>
							}
						}
						else
						{
							alarm_active = 0;
   4220c:	d0272a15 	stw	zero,-25432(gp)
							lcd_active = 1;
   42210:	00800044 	movi	r2,1
   42214:	d0a72b15 	stw	r2,-25428(gp)
   42218:	00000506 	br	42230 <main+0x214>
						}
    	    	     }
					else
					{
						IOWR_ALTERA_AVALON_PIO_DATA(LEDG_BASE, 0x0); // 绿灯关
   4221c:	0007883a 	mov	r3,zero
   42220:	00800334 	movhi	r2,12
   42224:	10842004 	addi	r2,r2,4224
   42228:	10c00035 	stwio	r3,0(r2)
						alarm_active = 0;
   4222c:	d0272a15 	stw	zero,-25432(gp)
    	    	    }

    	    	        // 设置当前时间
    	    	        if (((IORD_ALTERA_AVALON_PIO_DATA(SLIDERS_BASE)) & 4) != 0) {
   42230:	00800334 	movhi	r2,12
   42234:	10841404 	addi	r2,r2,4176
   42238:	10800037 	ldwio	r2,0(r2)
   4223c:	1080010c 	andi	r2,r2,4
   42240:	10000426 	beq	r2,zero,42254 <main+0x238>
    	    	           // DISP(actual_time);
    	    	        	Timer_Stop();
   42244:	0042b580 	call	42b58 <Timer_Stop>
    	    	            add_func = 1; // button1 中断允许
   42248:	00800044 	movi	r2,1
   4224c:	d0a72845 	stb	r2,-25439(gp)
   42250:	003f8406 	br	42064 <_exit+0xfffa2058>
    	    	        }
    	    	        // 设置闹钟时间
    	    	        else if (((IORD_ALTERA_AVALON_PIO_DATA(SLIDERS_BASE)) & 2) != 0) {
   42254:	00800334 	movhi	r2,12
   42258:	10841404 	addi	r2,r2,4176
   4225c:	10800037 	ldwio	r2,0(r2)
   42260:	1080008c 	andi	r2,r2,2
   42264:	10000826 	beq	r2,zero,42288 <main+0x26c>
    	    	            DISP(alarm_time);
   42268:	d0a00017 	ldw	r2,-32768(gp)
   4226c:	1009883a 	mov	r4,r2
   42270:	00429080 	call	42908 <DISP>
    	    	            //Timer_Stop();
    	    	            dis_flag=1;
   42274:	00800044 	movi	r2,1
   42278:	d0a72805 	stb	r2,-25440(gp)
    	    	            add_func = 2; // button2 中断允许
   4227c:	00800084 	movi	r2,2
   42280:	d0a72845 	stb	r2,-25439(gp)
   42284:	003f7706 	br	42064 <_exit+0xfffa2058>
    	    	        } else {
    	    	            //DISP(actual_time);
    	    	        	Timer_Start();
   42288:	0042b280 	call	42b28 <Timer_Start>
    	    	            add_func = 0;
   4228c:	d0272845 	stb	zero,-25439(gp)
    	    	            dis_flag=0;
   42290:	d0272805 	stb	zero,-25440(gp)
   42294:	003f7306 	br	42064 <_exit+0xfffa2058>
    	    	        }
    	       } else if (mode == 1 && matrix_done == 0) {
   42298:	d0a72e03 	ldbu	r2,-25416(gp)
   4229c:	10803fcc 	andi	r2,r2,255
   422a0:	10800058 	cmpnei	r2,r2,1
   422a4:	103f6f1e 	bne	r2,zero,42064 <_exit+0xfffa2058>
   422a8:	d0a72e43 	ldbu	r2,-25415(gp)
   422ac:	10803fcc 	andi	r2,r2,255
   422b0:	103f6c1e 	bne	r2,zero,42064 <_exit+0xfffa2058>
    	           matrix_done = 1;
   422b4:	00800044 	movi	r2,1
   422b8:	d0a72e45 	stb	r2,-25415(gp)
    	           //输入矩阵A
    	           	    printf("\n请输入矩阵A的行数和列数: ");
   422bc:	010001b4 	movhi	r4,6
   422c0:	213edf04 	addi	r4,r4,-1156
   422c4:	004913c0 	call	4913c <printf>
    	           	    scanf("%d %d", &A.rows, &A.cols);
   422c8:	e0b50104 	addi	r2,fp,-11260
   422cc:	10c00104 	addi	r3,r2,4
   422d0:	e0b50104 	addi	r2,fp,-11260
   422d4:	180d883a 	mov	r6,r3
   422d8:	100b883a 	mov	r5,r2
   422dc:	010001b4 	movhi	r4,6
   422e0:	213ee604 	addi	r4,r4,-1128
   422e4:	004926c0 	call	4926c <scanf>
    	           	    printf("请按行输入矩阵A的 %d 个元素（用空格分隔）:\n", A.rows*A.cols);
   422e8:	e0b50117 	ldw	r2,-11260(fp)
   422ec:	e0f50217 	ldw	r3,-11256(fp)
   422f0:	180b883a 	mov	r5,r3
   422f4:	1009883a 	mov	r4,r2
   422f8:	00451400 	call	45140 <__mulsi3>
   422fc:	100b883a 	mov	r5,r2
   42300:	010001b4 	movhi	r4,6
   42304:	213ee804 	addi	r4,r4,-1120
   42308:	004913c0 	call	4913c <printf>
    	           	    for(int i=0; i<A.rows; i++)
   4230c:	e034fd15 	stw	zero,-11276(fp)
   42310:	00001a06 	br	4237c <main+0x360>
    	           	    {
    	           	        for(int j=0; j<A.cols; j++)
   42314:	e034fe15 	stw	zero,-11272(fp)
   42318:	00001206 	br	42364 <main+0x348>
    	           	        {
    	           	            scanf("%f", &A.data[i][j]);
   4231c:	e4350104 	addi	r16,fp,-11260
   42320:	01400504 	movi	r5,20
   42324:	e134fd17 	ldw	r4,-11276(fp)
   42328:	00451400 	call	45140 <__mulsi3>
   4232c:	1007883a 	mov	r3,r2
   42330:	e0b4fe17 	ldw	r2,-11272(fp)
   42334:	1885883a 	add	r2,r3,r2
   42338:	10800084 	addi	r2,r2,2
   4233c:	1085883a 	add	r2,r2,r2
   42340:	1085883a 	add	r2,r2,r2
   42344:	8085883a 	add	r2,r16,r2
   42348:	100b883a 	mov	r5,r2
   4234c:	010001b4 	movhi	r4,6
   42350:	213ef304 	addi	r4,r4,-1076
   42354:	004926c0 	call	4926c <scanf>
    	           	    printf("\n请输入矩阵A的行数和列数: ");
    	           	    scanf("%d %d", &A.rows, &A.cols);
    	           	    printf("请按行输入矩阵A的 %d 个元素（用空格分隔）:\n", A.rows*A.cols);
    	           	    for(int i=0; i<A.rows; i++)
    	           	    {
    	           	        for(int j=0; j<A.cols; j++)
   42358:	e0b4fe17 	ldw	r2,-11272(fp)
   4235c:	10800044 	addi	r2,r2,1
   42360:	e0b4fe15 	stw	r2,-11272(fp)
   42364:	e0b50217 	ldw	r2,-11256(fp)
   42368:	e0f4fe17 	ldw	r3,-11272(fp)
   4236c:	18bfeb16 	blt	r3,r2,4231c <_exit+0xfffa2310>
    	           matrix_done = 1;
    	           //输入矩阵A
    	           	    printf("\n请输入矩阵A的行数和列数: ");
    	           	    scanf("%d %d", &A.rows, &A.cols);
    	           	    printf("请按行输入矩阵A的 %d 个元素（用空格分隔）:\n", A.rows*A.cols);
    	           	    for(int i=0; i<A.rows; i++)
   42370:	e0b4fd17 	ldw	r2,-11276(fp)
   42374:	10800044 	addi	r2,r2,1
   42378:	e0b4fd15 	stw	r2,-11276(fp)
   4237c:	e0b50117 	ldw	r2,-11260(fp)
   42380:	e0f4fd17 	ldw	r3,-11276(fp)
   42384:	18bfe316 	blt	r3,r2,42314 <_exit+0xfffa2308>
    	           	        {
    	           	            scanf("%f", &A.data[i][j]);
    	           	        }
    	           	    }
    	           	//输入矩阵B
    	           	    printf("\n请输入矩阵B的行数和列数: ");
   42388:	010001b4 	movhi	r4,6
   4238c:	213ef404 	addi	r4,r4,-1072
   42390:	004913c0 	call	4913c <printf>
    	           	    scanf("%d %d", &B.rows, &B.cols);
   42394:	e0b69304 	addi	r2,fp,-9652
   42398:	10c00104 	addi	r3,r2,4
   4239c:	e0b69304 	addi	r2,fp,-9652
   423a0:	180d883a 	mov	r6,r3
   423a4:	100b883a 	mov	r5,r2
   423a8:	010001b4 	movhi	r4,6
   423ac:	213ee604 	addi	r4,r4,-1128
   423b0:	004926c0 	call	4926c <scanf>
    	           	    printf("请按行输入矩阵B的 %d 个元素（用空格分隔）:\n", B.rows*B.cols);
   423b4:	e0b69317 	ldw	r2,-9652(fp)
   423b8:	e0f69417 	ldw	r3,-9648(fp)
   423bc:	180b883a 	mov	r5,r3
   423c0:	1009883a 	mov	r4,r2
   423c4:	00451400 	call	45140 <__mulsi3>
   423c8:	100b883a 	mov	r5,r2
   423cc:	010001b4 	movhi	r4,6
   423d0:	213efb04 	addi	r4,r4,-1044
   423d4:	004913c0 	call	4913c <printf>
    	           	    for(int i=0; i<B.rows; i++)
   423d8:	e034ff15 	stw	zero,-11268(fp)
   423dc:	00001a06 	br	42448 <main+0x42c>
    	           	    {
    	           	        for(int j=0; j<B.cols; j++)
   423e0:	e0350015 	stw	zero,-11264(fp)
   423e4:	00001206 	br	42430 <main+0x414>
    	           	        {
    	           	           scanf("%f", &B.data[i][j]);
   423e8:	e4369304 	addi	r16,fp,-9652
   423ec:	01400504 	movi	r5,20
   423f0:	e134ff17 	ldw	r4,-11268(fp)
   423f4:	00451400 	call	45140 <__mulsi3>
   423f8:	1007883a 	mov	r3,r2
   423fc:	e0b50017 	ldw	r2,-11264(fp)
   42400:	1885883a 	add	r2,r3,r2
   42404:	10800084 	addi	r2,r2,2
   42408:	1085883a 	add	r2,r2,r2
   4240c:	1085883a 	add	r2,r2,r2
   42410:	8085883a 	add	r2,r16,r2
   42414:	100b883a 	mov	r5,r2
   42418:	010001b4 	movhi	r4,6
   4241c:	213ef304 	addi	r4,r4,-1076
   42420:	004926c0 	call	4926c <scanf>
    	           	    printf("\n请输入矩阵B的行数和列数: ");
    	           	    scanf("%d %d", &B.rows, &B.cols);
    	           	    printf("请按行输入矩阵B的 %d 个元素（用空格分隔）:\n", B.rows*B.cols);
    	           	    for(int i=0; i<B.rows; i++)
    	           	    {
    	           	        for(int j=0; j<B.cols; j++)
   42424:	e0b50017 	ldw	r2,-11264(fp)
   42428:	10800044 	addi	r2,r2,1
   4242c:	e0b50015 	stw	r2,-11264(fp)
   42430:	e0b69417 	ldw	r2,-9648(fp)
   42434:	e0f50017 	ldw	r3,-11264(fp)
   42438:	18bfeb16 	blt	r3,r2,423e8 <_exit+0xfffa23dc>
    	           	    }
    	           	//输入矩阵B
    	           	    printf("\n请输入矩阵B的行数和列数: ");
    	           	    scanf("%d %d", &B.rows, &B.cols);
    	           	    printf("请按行输入矩阵B的 %d 个元素（用空格分隔）:\n", B.rows*B.cols);
    	           	    for(int i=0; i<B.rows; i++)
   4243c:	e0b4ff17 	ldw	r2,-11268(fp)
   42440:	10800044 	addi	r2,r2,1
   42444:	e0b4ff15 	stw	r2,-11268(fp)
   42448:	e0b69317 	ldw	r2,-9652(fp)
   4244c:	e0f4ff17 	ldw	r3,-11268(fp)
   42450:	18bfe316 	blt	r3,r2,423e0 <_exit+0xfffa23d4>
    	           	        {
    	           	           scanf("%f", &B.data[i][j]);
    	           	        }
    	           	    }
    	               //矩阵加法
    	           	    matrix_add(&A, &B, &C);
   42454:	e1382504 	addi	r4,fp,-8044
   42458:	e0f69304 	addi	r3,fp,-9652
   4245c:	e0b50104 	addi	r2,fp,-11260
   42460:	200d883a 	mov	r6,r4
   42464:	180b883a 	mov	r5,r3
   42468:	1009883a 	mov	r4,r2
   4246c:	00401fc0 	call	401fc <matrix_add>
    	           	    printf("\n矩阵加法结果\n");
   42470:	010001b4 	movhi	r4,6
   42474:	213f0604 	addi	r4,r4,-1000
   42478:	00492580 	call	49258 <puts>
    	           	    matrix_print(&C);
   4247c:	e0b82504 	addi	r2,fp,-8044
   42480:	1009883a 	mov	r4,r2
   42484:	0041f400 	call	41f40 <matrix_print>
    	           	//矩阵减法
    	           	    matrix_sub(&A, &B, &C);
   42488:	e1382504 	addi	r4,fp,-8044
   4248c:	e0f69304 	addi	r3,fp,-9652
   42490:	e0b50104 	addi	r2,fp,-11260
   42494:	200d883a 	mov	r6,r4
   42498:	180b883a 	mov	r5,r3
   4249c:	1009883a 	mov	r4,r2
   424a0:	00404f40 	call	404f4 <matrix_sub>
    	           	    printf("\n矩阵减法结果\n");
   424a4:	010001b4 	movhi	r4,6
   424a8:	213f0a04 	addi	r4,r4,-984
   424ac:	00492580 	call	49258 <puts>
    	           	    matrix_print(&C);
   424b0:	e0b82504 	addi	r2,fp,-8044
   424b4:	1009883a 	mov	r4,r2
   424b8:	0041f400 	call	41f40 <matrix_print>
    	           	//矩阵乘法
    	           		matrix_multiply(&A, &B, &C);
   424bc:	e1382504 	addi	r4,fp,-8044
   424c0:	e0f69304 	addi	r3,fp,-9652
   424c4:	e0b50104 	addi	r2,fp,-11260
   424c8:	200d883a 	mov	r6,r4
   424cc:	180b883a 	mov	r5,r3
   424d0:	1009883a 	mov	r4,r2
   424d4:	00407ec0 	call	407ec <matrix_multiply>
    	           		printf("\n矩阵乘法结果:\n");
   424d8:	010001b4 	movhi	r4,6
   424dc:	213f0e04 	addi	r4,r4,-968
   424e0:	00492580 	call	49258 <puts>
    	           		if(mul_flag==0) printf("\nError!\n");
   424e4:	d0a72f03 	ldbu	r2,-25412(gp)
   424e8:	10803fcc 	andi	r2,r2,255
   424ec:	1000031e 	bne	r2,zero,424fc <main+0x4e0>
   424f0:	010001b4 	movhi	r4,6
   424f4:	213f1204 	addi	r4,r4,-952
   424f8:	00492580 	call	49258 <puts>
    	           		if(mul_flag==1) matrix_print(&C);
   424fc:	d0a72f03 	ldbu	r2,-25412(gp)
   42500:	10803fcc 	andi	r2,r2,255
   42504:	10800058 	cmpnei	r2,r2,1
   42508:	1000031e 	bne	r2,zero,42518 <main+0x4fc>
   4250c:	e0b82504 	addi	r2,fp,-8044
   42510:	1009883a 	mov	r4,r2
   42514:	0041f400 	call	41f40 <matrix_print>
    	           	//矩阵求逆
    	           		printf("\n矩阵求逆结果\n");
   42518:	010001b4 	movhi	r4,6
   4251c:	213f1404 	addi	r4,r4,-944
   42520:	00492580 	call	49258 <puts>
    	           		if (matrix_inverse(&A, &invA) == 0)	matrix_print(&invA);
   42524:	e0f9b704 	addi	r3,fp,-6436
   42528:	e0b50104 	addi	r2,fp,-11260
   4252c:	180b883a 	mov	r5,r3
   42530:	1009883a 	mov	r4,r2
   42534:	0040a240 	call	40a24 <matrix_inverse>
   42538:	1000041e 	bne	r2,zero,4254c <main+0x530>
   4253c:	e0b9b704 	addi	r2,fp,-6436
   42540:	1009883a 	mov	r4,r2
   42544:	0041f400 	call	41f40 <matrix_print>
   42548:	00000306 	br	42558 <main+0x53c>
    	           		else printf("\nError!\n");
   4254c:	010001b4 	movhi	r4,6
   42550:	213f1204 	addi	r4,r4,-952
   42554:	00492580 	call	49258 <puts>
    	           	//测试SVD分解
    	           		svd_decomposition(&A, &U, &S, &V);
   42558:	e17e6d04 	addi	r5,fp,-1612
   4255c:	e13cdb04 	addi	r4,fp,-3220
   42560:	e0fb4904 	addi	r3,fp,-4828
   42564:	e0b50104 	addi	r2,fp,-11260
   42568:	280f883a 	mov	r7,r5
   4256c:	200d883a 	mov	r6,r4
   42570:	180b883a 	mov	r5,r3
   42574:	1009883a 	mov	r4,r2
   42578:	0040f080 	call	40f08 <svd_decomposition>
    	           		printf("\n矩阵SVD分解结果：\n");
   4257c:	010001b4 	movhi	r4,6
   42580:	213f1804 	addi	r4,r4,-928
   42584:	00492580 	call	49258 <puts>
    	           		printf("\nU Matrix:\n");
   42588:	010001b4 	movhi	r4,6
   4258c:	213f1d04 	addi	r4,r4,-908
   42590:	00492580 	call	49258 <puts>
    	           		matrix_print(&U);
   42594:	e0bb4904 	addi	r2,fp,-4828
   42598:	1009883a 	mov	r4,r2
   4259c:	0041f400 	call	41f40 <matrix_print>
    	           		printf("\nS Matrix:\n");
   425a0:	010001b4 	movhi	r4,6
   425a4:	213f2004 	addi	r4,r4,-896
   425a8:	00492580 	call	49258 <puts>
    	           		matrix_print(&S);
   425ac:	e0bcdb04 	addi	r2,fp,-3220
   425b0:	1009883a 	mov	r4,r2
   425b4:	0041f400 	call	41f40 <matrix_print>
    	           		printf("\nV Matrix:\n");
   425b8:	010001b4 	movhi	r4,6
   425bc:	213f2304 	addi	r4,r4,-884
   425c0:	00492580 	call	49258 <puts>
    	           		matrix_print(&V);
   425c4:	e0be6d04 	addi	r2,fp,-1612
   425c8:	1009883a 	mov	r4,r2
   425cc:	0041f400 	call	41f40 <matrix_print>
    	       }
    }
   425d0:	003ea406 	br	42064 <_exit+0xfffa2058>

000425d4 <IRQ_Init>:
}

void IRQ_Init() { // 初始化 PIO 中断
   425d4:	defffd04 	addi	sp,sp,-12
   425d8:	dfc00215 	stw	ra,8(sp)
   425dc:	df000115 	stw	fp,4(sp)
   425e0:	df000104 	addi	fp,sp,4
    // button1
    IOWR_ALTERA_AVALON_PIO_IRQ_MASK(BUTTON1_BASE, 1); // 使能中断
   425e4:	00c00044 	movi	r3,1
   425e8:	00800334 	movhi	r2,12
   425ec:	10841e04 	addi	r2,r2,4216
   425f0:	10c00035 	stwio	r3,0(r2)
    IOWR_ALTERA_AVALON_PIO_EDGE_CAP(BUTTON1_BASE, 1); // 清中断边沿检测寄存器
   425f4:	00c00044 	movi	r3,1
   425f8:	00800334 	movhi	r2,12
   425fc:	10841f04 	addi	r2,r2,4220
   42600:	10c00035 	stwio	r3,0(r2)
    alt_ic_isr_register(
   42604:	d8000015 	stw	zero,0(sp)
   42608:	000f883a 	mov	r7,zero
   4260c:	01800134 	movhi	r6,4
   42610:	3189ac04 	addi	r6,r6,9904
   42614:	01400044 	movi	r5,1
   42618:	0009883a 	mov	r4,zero
   4261c:	005c9380 	call	5c938 <alt_ic_isr_register>
        IRQ_Key_Interrupts1, // 中断服务函数
        0x0, // ISR 上下文指针
        0x0); // flags，保留未用

    // button2
    IOWR_ALTERA_AVALON_PIO_IRQ_MASK(BUTTON2_BASE, 1); // 使能中断
   42620:	00c00044 	movi	r3,1
   42624:	00800334 	movhi	r2,12
   42628:	10841a04 	addi	r2,r2,4200
   4262c:	10c00035 	stwio	r3,0(r2)
    IOWR_ALTERA_AVALON_PIO_EDGE_CAP(BUTTON2_BASE, 1); // 清中断边沿检测寄存器
   42630:	00c00044 	movi	r3,1
   42634:	00800334 	movhi	r2,12
   42638:	10841b04 	addi	r2,r2,4204
   4263c:	10c00035 	stwio	r3,0(r2)
    alt_ic_isr_register(
   42640:	d8000015 	stw	zero,0(sp)
   42644:	000f883a 	mov	r7,zero
   42648:	01800134 	movhi	r6,4
   4264c:	3189de04 	addi	r6,r6,10104
   42650:	01400084 	movi	r5,2
   42654:	0009883a 	mov	r4,zero
   42658:	005c9380 	call	5c938 <alt_ic_isr_register>
        BUTTON2_IRQ,
        IRQ_Key_Interrupts2,
        0x0,
        0x0);
    //button3
    IOWR_ALTERA_AVALON_PIO_IRQ_MASK(BUTTON3_BASE, 1); // 使能中断
   4265c:	00c00044 	movi	r3,1
   42660:	00800334 	movhi	r2,12
   42664:	10840a04 	addi	r2,r2,4136
   42668:	10c00035 	stwio	r3,0(r2)
    IOWR_ALTERA_AVALON_PIO_EDGE_CAP(BUTTON3_BASE, 1); // 清中断边沿检测寄存器
   4266c:	00c00044 	movi	r3,1
   42670:	00800334 	movhi	r2,12
   42674:	10840b04 	addi	r2,r2,4140
   42678:	10c00035 	stwio	r3,0(r2)
    alt_ic_isr_register(
   4267c:	d8000015 	stw	zero,0(sp)
   42680:	000f883a 	mov	r7,zero
   42684:	01800134 	movhi	r6,4
   42688:	318a1004 	addi	r6,r6,10304
   4268c:	014000c4 	movi	r5,3
   42690:	0009883a 	mov	r4,zero
   42694:	005c9380 	call	5c938 <alt_ic_isr_register>
        BUTTON3_IRQ_INTERRUPT_CONTROLLER_ID,
        BUTTON3_IRQ,
        IRQ_Key_Interrupts3,
        0x0,
        0x0);
}
   42698:	0001883a 	nop
   4269c:	e037883a 	mov	sp,fp
   426a0:	dfc00117 	ldw	ra,4(sp)
   426a4:	df000017 	ldw	fp,0(sp)
   426a8:	dec00204 	addi	sp,sp,8
   426ac:	f800283a 	ret

000426b0 <IRQ_Key_Interrupts1>:

void IRQ_Key_Interrupts1() {
   426b0:	defffe04 	addi	sp,sp,-8
   426b4:	dfc00115 	stw	ra,4(sp)
   426b8:	df000015 	stw	fp,0(sp)
   426bc:	d839883a 	mov	fp,sp
    if (add_func == 1) {
   426c0:	d0a72843 	ldbu	r2,-25439(gp)
   426c4:	10803fcc 	andi	r2,r2,255
   426c8:	10800058 	cmpnei	r2,r2,1
   426cc:	10000d1e 	bne	r2,zero,42704 <IRQ_Key_Interrupts1+0x54>
        actual_time += 60;
   426d0:	d0a72917 	ldw	r2,-25436(gp)
   426d4:	10800f04 	addi	r2,r2,60
   426d8:	d0a72915 	stw	r2,-25436(gp)
        if (actual_time >= 86400) actual_time = 0;
   426dc:	d0e72917 	ldw	r3,-25436(gp)
   426e0:	00800074 	movhi	r2,1
   426e4:	10945fc4 	addi	r2,r2,20863
   426e8:	10c0012e 	bgeu	r2,r3,426f0 <IRQ_Key_Interrupts1+0x40>
   426ec:	d0272915 	stw	zero,-25436(gp)
        IOWR_ALTERA_AVALON_PIO_EDGE_CAP(BUTTON1_BASE, 1); // 清中断边沿检测寄存器
   426f0:	00c00044 	movi	r3,1
   426f4:	00800334 	movhi	r2,12
   426f8:	10841f04 	addi	r2,r2,4220
   426fc:	10c00035 	stwio	r3,0(r2)
   42700:	00001006 	br	42744 <IRQ_Key_Interrupts1+0x94>
    } else if (add_func == 2) {
   42704:	d0a72843 	ldbu	r2,-25439(gp)
   42708:	10803fcc 	andi	r2,r2,255
   4270c:	10800098 	cmpnei	r2,r2,2
   42710:	10000c1e 	bne	r2,zero,42744 <IRQ_Key_Interrupts1+0x94>
        alarm_time += 60;
   42714:	d0a00017 	ldw	r2,-32768(gp)
   42718:	10800f04 	addi	r2,r2,60
   4271c:	d0a00015 	stw	r2,-32768(gp)
        if (alarm_time >= 86400) alarm_time = 0;
   42720:	d0e00017 	ldw	r3,-32768(gp)
   42724:	00800074 	movhi	r2,1
   42728:	10945fc4 	addi	r2,r2,20863
   4272c:	10c0012e 	bgeu	r2,r3,42734 <IRQ_Key_Interrupts1+0x84>
   42730:	d0200015 	stw	zero,-32768(gp)
        IOWR_ALTERA_AVALON_PIO_EDGE_CAP(BUTTON1_BASE, 1);
   42734:	00c00044 	movi	r3,1
   42738:	00800334 	movhi	r2,12
   4273c:	10841f04 	addi	r2,r2,4220
   42740:	10c00035 	stwio	r3,0(r2)
    }
    IOWR_ALTERA_AVALON_PIO_EDGE_CAP(BUTTON1_BASE, 1);
   42744:	00c00044 	movi	r3,1
   42748:	00800334 	movhi	r2,12
   4274c:	10841f04 	addi	r2,r2,4220
   42750:	10c00035 	stwio	r3,0(r2)
    DISP(actual_time);
   42754:	d0a72917 	ldw	r2,-25436(gp)
   42758:	1009883a 	mov	r4,r2
   4275c:	00429080 	call	42908 <DISP>
}
   42760:	0001883a 	nop
   42764:	e037883a 	mov	sp,fp
   42768:	dfc00117 	ldw	ra,4(sp)
   4276c:	df000017 	ldw	fp,0(sp)
   42770:	dec00204 	addi	sp,sp,8
   42774:	f800283a 	ret

00042778 <IRQ_Key_Interrupts2>:

void IRQ_Key_Interrupts2() {
   42778:	defffe04 	addi	sp,sp,-8
   4277c:	dfc00115 	stw	ra,4(sp)
   42780:	df000015 	stw	fp,0(sp)
   42784:	d839883a 	mov	fp,sp
    if (add_func == 1) {
   42788:	d0a72843 	ldbu	r2,-25439(gp)
   4278c:	10803fcc 	andi	r2,r2,255
   42790:	10800058 	cmpnei	r2,r2,1
   42794:	10000d1e 	bne	r2,zero,427cc <IRQ_Key_Interrupts2+0x54>
        actual_time += 3600;
   42798:	d0a72917 	ldw	r2,-25436(gp)
   4279c:	10838404 	addi	r2,r2,3600
   427a0:	d0a72915 	stw	r2,-25436(gp)
        if (actual_time >= 86400) actual_time = 0;
   427a4:	d0e72917 	ldw	r3,-25436(gp)
   427a8:	00800074 	movhi	r2,1
   427ac:	10945fc4 	addi	r2,r2,20863
   427b0:	10c0012e 	bgeu	r2,r3,427b8 <IRQ_Key_Interrupts2+0x40>
   427b4:	d0272915 	stw	zero,-25436(gp)
        IOWR_ALTERA_AVALON_PIO_EDGE_CAP(BUTTON2_BASE, 1);
   427b8:	00c00044 	movi	r3,1
   427bc:	00800334 	movhi	r2,12
   427c0:	10841b04 	addi	r2,r2,4204
   427c4:	10c00035 	stwio	r3,0(r2)
   427c8:	00001006 	br	4280c <IRQ_Key_Interrupts2+0x94>
    } else if (add_func == 2) {
   427cc:	d0a72843 	ldbu	r2,-25439(gp)
   427d0:	10803fcc 	andi	r2,r2,255
   427d4:	10800098 	cmpnei	r2,r2,2
   427d8:	10000c1e 	bne	r2,zero,4280c <IRQ_Key_Interrupts2+0x94>
        alarm_time += 3600;
   427dc:	d0a00017 	ldw	r2,-32768(gp)
   427e0:	10838404 	addi	r2,r2,3600
   427e4:	d0a00015 	stw	r2,-32768(gp)
        if (alarm_time >= 86400) alarm_time = 0;
   427e8:	d0e00017 	ldw	r3,-32768(gp)
   427ec:	00800074 	movhi	r2,1
   427f0:	10945fc4 	addi	r2,r2,20863
   427f4:	10c0012e 	bgeu	r2,r3,427fc <IRQ_Key_Interrupts2+0x84>
   427f8:	d0200015 	stw	zero,-32768(gp)
        IOWR_ALTERA_AVALON_PIO_EDGE_CAP(BUTTON2_BASE, 1);
   427fc:	00c00044 	movi	r3,1
   42800:	00800334 	movhi	r2,12
   42804:	10841b04 	addi	r2,r2,4204
   42808:	10c00035 	stwio	r3,0(r2)
    }
    IOWR_ALTERA_AVALON_PIO_EDGE_CAP(BUTTON2_BASE, 1);
   4280c:	00c00044 	movi	r3,1
   42810:	00800334 	movhi	r2,12
   42814:	10841b04 	addi	r2,r2,4204
   42818:	10c00035 	stwio	r3,0(r2)
    DISP(actual_time);
   4281c:	d0a72917 	ldw	r2,-25436(gp)
   42820:	1009883a 	mov	r4,r2
   42824:	00429080 	call	42908 <DISP>
}
   42828:	0001883a 	nop
   4282c:	e037883a 	mov	sp,fp
   42830:	dfc00117 	ldw	ra,4(sp)
   42834:	df000017 	ldw	fp,0(sp)
   42838:	dec00204 	addi	sp,sp,8
   4283c:	f800283a 	ret

00042840 <IRQ_Key_Interrupts3>:
void IRQ_Key_Interrupts3() {
   42840:	defffe04 	addi	sp,sp,-8
   42844:	dfc00115 	stw	ra,4(sp)
   42848:	df000015 	stw	fp,0(sp)
   4284c:	d839883a 	mov	fp,sp
    if (add_func == 1) {
   42850:	d0a72843 	ldbu	r2,-25439(gp)
   42854:	10803fcc 	andi	r2,r2,255
   42858:	10800058 	cmpnei	r2,r2,1
   4285c:	10000d1e 	bne	r2,zero,42894 <IRQ_Key_Interrupts3+0x54>
        actual_time ++;
   42860:	d0a72917 	ldw	r2,-25436(gp)
   42864:	10800044 	addi	r2,r2,1
   42868:	d0a72915 	stw	r2,-25436(gp)
        if (actual_time >= 86400) actual_time = 0;
   4286c:	d0e72917 	ldw	r3,-25436(gp)
   42870:	00800074 	movhi	r2,1
   42874:	10945fc4 	addi	r2,r2,20863
   42878:	10c0012e 	bgeu	r2,r3,42880 <IRQ_Key_Interrupts3+0x40>
   4287c:	d0272915 	stw	zero,-25436(gp)
        IOWR_ALTERA_AVALON_PIO_EDGE_CAP(BUTTON3_BASE, 1);
   42880:	00c00044 	movi	r3,1
   42884:	00800334 	movhi	r2,12
   42888:	10840b04 	addi	r2,r2,4140
   4288c:	10c00035 	stwio	r3,0(r2)
   42890:	00001006 	br	428d4 <IRQ_Key_Interrupts3+0x94>
    } else if (add_func == 2) {
   42894:	d0a72843 	ldbu	r2,-25439(gp)
   42898:	10803fcc 	andi	r2,r2,255
   4289c:	10800098 	cmpnei	r2,r2,2
   428a0:	10000c1e 	bne	r2,zero,428d4 <IRQ_Key_Interrupts3+0x94>
        alarm_time ++;
   428a4:	d0a00017 	ldw	r2,-32768(gp)
   428a8:	10800044 	addi	r2,r2,1
   428ac:	d0a00015 	stw	r2,-32768(gp)
        if (alarm_time >= 86400) alarm_time = 0;
   428b0:	d0e00017 	ldw	r3,-32768(gp)
   428b4:	00800074 	movhi	r2,1
   428b8:	10945fc4 	addi	r2,r2,20863
   428bc:	10c0012e 	bgeu	r2,r3,428c4 <IRQ_Key_Interrupts3+0x84>
   428c0:	d0200015 	stw	zero,-32768(gp)
        IOWR_ALTERA_AVALON_PIO_EDGE_CAP(BUTTON3_BASE, 1);
   428c4:	00c00044 	movi	r3,1
   428c8:	00800334 	movhi	r2,12
   428cc:	10840b04 	addi	r2,r2,4140
   428d0:	10c00035 	stwio	r3,0(r2)
    }
    IOWR_ALTERA_AVALON_PIO_EDGE_CAP(BUTTON3_BASE, 1);
   428d4:	00c00044 	movi	r3,1
   428d8:	00800334 	movhi	r2,12
   428dc:	10840b04 	addi	r2,r2,4140
   428e0:	10c00035 	stwio	r3,0(r2)
    DISP(actual_time);
   428e4:	d0a72917 	ldw	r2,-25436(gp)
   428e8:	1009883a 	mov	r4,r2
   428ec:	00429080 	call	42908 <DISP>
}
   428f0:	0001883a 	nop
   428f4:	e037883a 	mov	sp,fp
   428f8:	dfc00117 	ldw	ra,4(sp)
   428fc:	df000017 	ldw	fp,0(sp)
   42900:	dec00204 	addi	sp,sp,8
   42904:	f800283a 	ret

00042908 <DISP>:

void DISP(int time) { // 显示函数
   42908:	defffa04 	addi	sp,sp,-24
   4290c:	dfc00515 	stw	ra,20(sp)
   42910:	df000415 	stw	fp,16(sp)
   42914:	dc000315 	stw	r16,12(sp)
   42918:	df000404 	addi	fp,sp,16
   4291c:	e13ffe15 	stw	r4,-8(fp)
    int display = 0;
   42920:	e03ffc15 	stw	zero,-16(fp)
    display = table[time / 36000] << 24 |
   42924:	e0bffe17 	ldw	r2,-8(fp)
   42928:	01632814 	movui	r5,36000
   4292c:	1009883a 	mov	r4,r2
   42930:	0044f8c0 	call	44f8c <__divsi3>
   42934:	1007883a 	mov	r3,r2
   42938:	008001b4 	movhi	r2,6
   4293c:	10820804 	addi	r2,r2,2080
   42940:	10c5883a 	add	r2,r2,r3
   42944:	10800003 	ldbu	r2,0(r2)
   42948:	10803fcc 	andi	r2,r2,255
   4294c:	1020963a 	slli	r16,r2,24
              table[(time % 36000) / 3600] << 16 |
   42950:	e0bffe17 	ldw	r2,-8(fp)
   42954:	01632814 	movui	r5,36000
   42958:	1009883a 	mov	r4,r2
   4295c:	00450100 	call	45010 <__modsi3>
   42960:	01438404 	movi	r5,3600
   42964:	1009883a 	mov	r4,r2
   42968:	0044f8c0 	call	44f8c <__divsi3>
   4296c:	1007883a 	mov	r3,r2
   42970:	008001b4 	movhi	r2,6
   42974:	10820804 	addi	r2,r2,2080
   42978:	10c5883a 	add	r2,r2,r3
   4297c:	10800003 	ldbu	r2,0(r2)
   42980:	10803fcc 	andi	r2,r2,255
   42984:	1004943a 	slli	r2,r2,16
    DISP(actual_time);
}

void DISP(int time) { // 显示函数
    int display = 0;
    display = table[time / 36000] << 24 |
   42988:	80a0b03a 	or	r16,r16,r2
              table[(time % 36000) / 3600] << 16 |
              table[(time % 3600) / 600] << 8 |
   4298c:	e0bffe17 	ldw	r2,-8(fp)
   42990:	01438404 	movi	r5,3600
   42994:	1009883a 	mov	r4,r2
   42998:	00450100 	call	45010 <__modsi3>
   4299c:	01409604 	movi	r5,600
   429a0:	1009883a 	mov	r4,r2
   429a4:	0044f8c0 	call	44f8c <__divsi3>
   429a8:	1007883a 	mov	r3,r2
   429ac:	008001b4 	movhi	r2,6
   429b0:	10820804 	addi	r2,r2,2080
   429b4:	10c5883a 	add	r2,r2,r3
   429b8:	10800003 	ldbu	r2,0(r2)
   429bc:	10803fcc 	andi	r2,r2,255
   429c0:	1004923a 	slli	r2,r2,8
}

void DISP(int time) { // 显示函数
    int display = 0;
    display = table[time / 36000] << 24 |
              table[(time % 36000) / 3600] << 16 |
   429c4:	80a0b03a 	or	r16,r16,r2
              table[(time % 3600) / 600] << 8 |
              table[(time % 600 / 60)];
   429c8:	e0bffe17 	ldw	r2,-8(fp)
   429cc:	01409604 	movi	r5,600
   429d0:	1009883a 	mov	r4,r2
   429d4:	00450100 	call	45010 <__modsi3>
   429d8:	01400f04 	movi	r5,60
   429dc:	1009883a 	mov	r4,r2
   429e0:	0044f8c0 	call	44f8c <__divsi3>
   429e4:	1007883a 	mov	r3,r2
   429e8:	008001b4 	movhi	r2,6
   429ec:	10820804 	addi	r2,r2,2080
   429f0:	10c5883a 	add	r2,r2,r3
   429f4:	10800003 	ldbu	r2,0(r2)

void DISP(int time) { // 显示函数
    int display = 0;
    display = table[time / 36000] << 24 |
              table[(time % 36000) / 3600] << 16 |
              table[(time % 3600) / 600] << 8 |
   429f8:	10803fcc 	andi	r2,r2,255
    DISP(actual_time);
}

void DISP(int time) { // 显示函数
    int display = 0;
    display = table[time / 36000] << 24 |
   429fc:	8084b03a 	or	r2,r16,r2
   42a00:	e0bffc15 	stw	r2,-16(fp)
              table[(time % 36000) / 3600] << 16 |
              table[(time % 3600) / 600] << 8 |
              table[(time % 600 / 60)];
    IOWR_ALTERA_AVALON_PIO_DATA(DISPLAY_BASE, display);
   42a04:	00800334 	movhi	r2,12
   42a08:	10841004 	addi	r2,r2,4160
   42a0c:	e0fffc17 	ldw	r3,-16(fp)
   42a10:	10c00035 	stwio	r3,0(r2)

    int display_2 = 0;
   42a14:	e03ffd15 	stw	zero,-12(fp)
    display_2 = table[time % 60 / 10] << 8 |
   42a18:	e0bffe17 	ldw	r2,-8(fp)
   42a1c:	01400f04 	movi	r5,60
   42a20:	1009883a 	mov	r4,r2
   42a24:	00450100 	call	45010 <__modsi3>
   42a28:	01400284 	movi	r5,10
   42a2c:	1009883a 	mov	r4,r2
   42a30:	0044f8c0 	call	44f8c <__divsi3>
   42a34:	1007883a 	mov	r3,r2
   42a38:	008001b4 	movhi	r2,6
   42a3c:	10820804 	addi	r2,r2,2080
   42a40:	10c5883a 	add	r2,r2,r3
   42a44:	10800003 	ldbu	r2,0(r2)
   42a48:	10803fcc 	andi	r2,r2,255
   42a4c:	1020923a 	slli	r16,r2,8
                table[time % 10];
   42a50:	e0bffe17 	ldw	r2,-8(fp)
   42a54:	01400284 	movi	r5,10
   42a58:	1009883a 	mov	r4,r2
   42a5c:	00450100 	call	45010 <__modsi3>
   42a60:	1007883a 	mov	r3,r2
   42a64:	008001b4 	movhi	r2,6
   42a68:	10820804 	addi	r2,r2,2080
   42a6c:	10c5883a 	add	r2,r2,r3
   42a70:	10800003 	ldbu	r2,0(r2)
              table[(time % 3600) / 600] << 8 |
              table[(time % 600 / 60)];
    IOWR_ALTERA_AVALON_PIO_DATA(DISPLAY_BASE, display);

    int display_2 = 0;
    display_2 = table[time % 60 / 10] << 8 |
   42a74:	10803fcc 	andi	r2,r2,255
   42a78:	8084b03a 	or	r2,r16,r2
   42a7c:	e0bffd15 	stw	r2,-12(fp)
                table[time % 10];
    IOWR_ALTERA_AVALON_PIO_DATA(DISPLAY_2_BASE, display_2);
   42a80:	00800334 	movhi	r2,12
   42a84:	10840c04 	addi	r2,r2,4144
   42a88:	e0fffd17 	ldw	r3,-12(fp)
   42a8c:	10c00035 	stwio	r3,0(r2)
}
   42a90:	0001883a 	nop
   42a94:	e6ffff04 	addi	sp,fp,-4
   42a98:	dfc00217 	ldw	ra,8(sp)
   42a9c:	df000117 	ldw	fp,4(sp)
   42aa0:	dc000017 	ldw	r16,0(sp)
   42aa4:	dec00304 	addi	sp,sp,12
   42aa8:	f800283a 	ret

00042aac <Timer_Initial>:

// 定时器中断初始化
void Timer_Initial(void) {
   42aac:	defffc04 	addi	sp,sp,-16
   42ab0:	dfc00315 	stw	ra,12(sp)
   42ab4:	df000215 	stw	fp,8(sp)
   42ab8:	df000204 	addi	fp,sp,8
    void* isr_context_ptr = (void*) &timer_isr_context;
   42abc:	d0a73004 	addi	r2,gp,-25408
   42ac0:	e0bfff15 	stw	r2,-4(fp)

    // 设置定时器周期
    // PERIODH << 16 | PERIODL = 计数器周期因子 * 时钟频率 - 1
    // 60s * 100M - 1 = 9999999 = 0x05F5E0FF
    IOWR_ALTERA_AVALON_TIMER_PERIODH(TIMER_0_BASE, 0x05F5);
   42ac4:	00c17d44 	movi	r3,1525
   42ac8:	00800334 	movhi	r2,12
   42acc:	10840304 	addi	r2,r2,4108
   42ad0:	10c00035 	stwio	r3,0(r2)
    IOWR_ALTERA_AVALON_TIMER_PERIODL(TIMER_0_BASE, 0xE0FF);
   42ad4:	00f83fd4 	movui	r3,57599
   42ad8:	00800334 	movhi	r2,12
   42adc:	10840204 	addi	r2,r2,4104
   42ae0:	10c00035 	stwio	r3,0(r2)

    // 设置控制寄存器
    // 位 3：STOP；位 2：START；位 1：CONT；位 0：ITO
    IOWR_ALTERA_AVALON_TIMER_CONTROL(TIMER_0_BASE,
   42ae4:	00c001c4 	movi	r3,7
   42ae8:	00800334 	movhi	r2,12
   42aec:	10840104 	addi	r2,r2,4100
   42af0:	10c00035 	stwio	r3,0(r2)
        ALTERA_AVALON_TIMER_CONTROL_START_MSK |
        ALTERA_AVALON_TIMER_CONTROL_CONT_MSK  |
        ALTERA_AVALON_TIMER_CONTROL_ITO_MSK);

    alt_ic_isr_register(
   42af4:	d8000015 	stw	zero,0(sp)
   42af8:	e1ffff17 	ldw	r7,-4(fp)
   42afc:	01800134 	movhi	r6,4
   42b00:	318ae204 	addi	r6,r6,11144
   42b04:	01400104 	movi	r5,4
   42b08:	0009883a 	mov	r4,zero
   42b0c:	005c9380 	call	5c938 <alt_ic_isr_register>
        TIMER_0_IRQ_INTERRUPT_CONTROLLER_ID,
        TIMER_0_IRQ,
        Timer_ISR,
        isr_context_ptr,
        0x0);
}
   42b10:	0001883a 	nop
   42b14:	e037883a 	mov	sp,fp
   42b18:	dfc00117 	ldw	ra,4(sp)
   42b1c:	df000017 	ldw	fp,0(sp)
   42b20:	dec00204 	addi	sp,sp,8
   42b24:	f800283a 	ret

00042b28 <Timer_Start>:
void Timer_Start(void) {
   42b28:	deffff04 	addi	sp,sp,-4
   42b2c:	df000015 	stw	fp,0(sp)
   42b30:	d839883a 	mov	fp,sp
    IOWR_ALTERA_AVALON_TIMER_CONTROL(
   42b34:	00c001c4 	movi	r3,7
   42b38:	00800334 	movhi	r2,12
   42b3c:	10840104 	addi	r2,r2,4100
   42b40:	10c00035 	stwio	r3,0(r2)
        TIMER_0_BASE,
        ALTERA_AVALON_TIMER_CONTROL_START_MSK |
        ALTERA_AVALON_TIMER_CONTROL_CONT_MSK  |
        ALTERA_AVALON_TIMER_CONTROL_ITO_MSK
    );
}
   42b44:	0001883a 	nop
   42b48:	e037883a 	mov	sp,fp
   42b4c:	df000017 	ldw	fp,0(sp)
   42b50:	dec00104 	addi	sp,sp,4
   42b54:	f800283a 	ret

00042b58 <Timer_Stop>:

// 停止定时器
void Timer_Stop(void) {
   42b58:	deffff04 	addi	sp,sp,-4
   42b5c:	df000015 	stw	fp,0(sp)
   42b60:	d839883a 	mov	fp,sp
    IOWR_ALTERA_AVALON_TIMER_CONTROL(
   42b64:	00c00204 	movi	r3,8
   42b68:	00800334 	movhi	r2,12
   42b6c:	10840104 	addi	r2,r2,4100
   42b70:	10c00035 	stwio	r3,0(r2)
        TIMER_0_BASE,
        ALTERA_AVALON_TIMER_CONTROL_STOP_MSK
    );
}
   42b74:	0001883a 	nop
   42b78:	e037883a 	mov	sp,fp
   42b7c:	df000017 	ldw	fp,0(sp)
   42b80:	dec00104 	addi	sp,sp,4
   42b84:	f800283a 	ret

00042b88 <Timer_ISR>:
// 定时器中断服务子程序
void Timer_ISR(void* timer_isr_context) {
   42b88:	defffa04 	addi	sp,sp,-24
   42b8c:	dfc00515 	stw	ra,20(sp)
   42b90:	df000415 	stw	fp,16(sp)
   42b94:	dc400315 	stw	r17,12(sp)
   42b98:	dc000215 	stw	r16,8(sp)
   42b9c:	df000404 	addi	fp,sp,16
   42ba0:	e13ffd15 	stw	r4,-12(fp)
    IOWR_ALTERA_AVALON_TIMER_STATUS(TIMER_0_BASE,
   42ba4:	00ffff84 	movi	r3,-2
   42ba8:	00800334 	movhi	r2,12
   42bac:	10840004 	addi	r2,r2,4096
   42bb0:	10c00035 	stwio	r3,0(r2)
        ~ALTERA_AVALON_TIMER_STATUS_TO_MSK); // 清中断标志
    actual_time++; // 实时时间自增
   42bb4:	d0a72917 	ldw	r2,-25436(gp)
   42bb8:	10800044 	addi	r2,r2,1
   42bbc:	d0a72915 	stw	r2,-25436(gp)
   if (dis_flag == 0)
   42bc0:	d0a72803 	ldbu	r2,-25440(gp)
   42bc4:	10803fcc 	andi	r2,r2,255
   42bc8:	1000031e 	bne	r2,zero,42bd8 <Timer_ISR+0x50>
	   DISP(actual_time);
   42bcc:	d0a72917 	ldw	r2,-25436(gp)
   42bd0:	1009883a 	mov	r4,r2
   42bd4:	00429080 	call	42908 <DISP>
    sprintf((char*)lcd_alarm_time,"Alarm:%02u:%02u:%02u",alarm_time/3600,alarm_time%3600/60,alarm_time %60);
   42bd8:	d0a00017 	ldw	r2,-32768(gp)
   42bdc:	01438404 	movi	r5,3600
   42be0:	1009883a 	mov	r4,r2
   42be4:	00450840 	call	45084 <__udivsi3>
   42be8:	1021883a 	mov	r16,r2
   42bec:	d0a00017 	ldw	r2,-32768(gp)
   42bf0:	01438404 	movi	r5,3600
   42bf4:	1009883a 	mov	r4,r2
   42bf8:	00450e80 	call	450e8 <__umodsi3>
   42bfc:	01400f04 	movi	r5,60
   42c00:	1009883a 	mov	r4,r2
   42c04:	00450840 	call	45084 <__udivsi3>
   42c08:	1023883a 	mov	r17,r2
   42c0c:	d0a00017 	ldw	r2,-32768(gp)
   42c10:	01400f04 	movi	r5,60
   42c14:	1009883a 	mov	r4,r2
   42c18:	00450e80 	call	450e8 <__umodsi3>
   42c1c:	d8800015 	stw	r2,0(sp)
   42c20:	880f883a 	mov	r7,r17
   42c24:	800d883a 	mov	r6,r16
   42c28:	014001b4 	movhi	r5,6
   42c2c:	297f2604 	addi	r5,r5,-872
   42c30:	010001b4 	movhi	r4,6
   42c34:	21104604 	addi	r4,r4,16664
   42c38:	00493300 	call	49330 <sprintf>
    select_xy(1,0);lcd_prints(lcd_alarm_time);
   42c3c:	000b883a 	mov	r5,zero
   42c40:	01000044 	movi	r4,1
   42c44:	0042e380 	call	42e38 <select_xy>
   42c48:	010001b4 	movhi	r4,6
   42c4c:	21104604 	addi	r4,r4,16664
   42c50:	0042dd00 	call	42dd0 <lcd_prints>
}
   42c54:	0001883a 	nop
   42c58:	e6fffe04 	addi	sp,fp,-8
   42c5c:	dfc00317 	ldw	ra,12(sp)
   42c60:	df000217 	ldw	fp,8(sp)
   42c64:	dc400117 	ldw	r17,4(sp)
   42c68:	dc000017 	ldw	r16,0(sp)
   42c6c:	dec00404 	addi	sp,sp,16
   42c70:	f800283a 	ret

00042c74 <delay>:

void delay(int count) {
   42c74:	defffd04 	addi	sp,sp,-12
   42c78:	df000215 	stw	fp,8(sp)
   42c7c:	df000204 	addi	fp,sp,8
   42c80:	e13fff15 	stw	r4,-4(fp)
    int i;
    for (i = 1; i <= count; i++);
   42c84:	00800044 	movi	r2,1
   42c88:	e0bffe15 	stw	r2,-8(fp)
   42c8c:	00000306 	br	42c9c <delay+0x28>
   42c90:	e0bffe17 	ldw	r2,-8(fp)
   42c94:	10800044 	addi	r2,r2,1
   42c98:	e0bffe15 	stw	r2,-8(fp)
   42c9c:	e0bffe17 	ldw	r2,-8(fp)
   42ca0:	e0ffff17 	ldw	r3,-4(fp)
   42ca4:	18bffa0e 	bge	r3,r2,42c90 <_exit+0xfffa2c84>
}
   42ca8:	0001883a 	nop
   42cac:	e037883a 	mov	sp,fp
   42cb0:	df000017 	ldw	fp,0(sp)
   42cb4:	dec00104 	addi	sp,sp,4
   42cb8:	f800283a 	ret

00042cbc <check_busy>:

void check_busy() { // 检查 LCD 忙标志
   42cbc:	defffe04 	addi	sp,sp,-8
   42cc0:	dfc00115 	stw	ra,4(sp)
   42cc4:	df000015 	stw	fp,0(sp)
   42cc8:	d839883a 	mov	fp,sp
    delay(8000);
   42ccc:	0107d004 	movi	r4,8000
   42cd0:	0042c740 	call	42c74 <delay>
    // 可用时打开注释进行状态查询
    // alt_u8 status;
    // do {
    //     status = IORD_ALTERA_AVALON_LCD_16207_STATUS(LCD_16207_0_BASE);
    // } while (status & 0x80);
}
   42cd4:	0001883a 	nop
   42cd8:	e037883a 	mov	sp,fp
   42cdc:	dfc00117 	ldw	ra,4(sp)
   42ce0:	df000017 	ldw	fp,0(sp)
   42ce4:	dec00204 	addi	sp,sp,8
   42ce8:	f800283a 	ret

00042cec <lcd_init>:

void lcd_init() { // LCD 1602 初始化
   42cec:	defffe04 	addi	sp,sp,-8
   42cf0:	dfc00115 	stw	ra,4(sp)
   42cf4:	df000015 	stw	fp,0(sp)
   42cf8:	d839883a 	mov	fp,sp
    usleep(400000);
   42cfc:	010001b4 	movhi	r4,6
   42d00:	2106a004 	addi	r4,r4,6784
   42d04:	005d1f00 	call	5d1f0 <usleep>
    IOWR_ALTERA_AVALON_LCD_16207_COMMAND(LCD_16207_0_BASE, 0x38);
   42d08:	00c00e04 	movi	r3,56
   42d0c:	00800334 	movhi	r2,12
   42d10:	10842804 	addi	r2,r2,4256
   42d14:	10c00035 	stwio	r3,0(r2)
    usleep(5000);
   42d18:	0104e204 	movi	r4,5000
   42d1c:	005d1f00 	call	5d1f0 <usleep>
    IOWR_ALTERA_AVALON_LCD_16207_COMMAND(LCD_16207_0_BASE, 0x38);
   42d20:	00c00e04 	movi	r3,56
   42d24:	00800334 	movhi	r2,12
   42d28:	10842804 	addi	r2,r2,4256
   42d2c:	10c00035 	stwio	r3,0(r2)
    usleep(5000);
   42d30:	0104e204 	movi	r4,5000
   42d34:	005d1f00 	call	5d1f0 <usleep>
    IOWR_ALTERA_AVALON_LCD_16207_COMMAND(LCD_16207_0_BASE, 0x38);
   42d38:	00c00e04 	movi	r3,56
   42d3c:	00800334 	movhi	r2,12
   42d40:	10842804 	addi	r2,r2,4256
   42d44:	10c00035 	stwio	r3,0(r2)
    usleep(5000);
   42d48:	0104e204 	movi	r4,5000
   42d4c:	005d1f00 	call	5d1f0 <usleep>
    check_busy();
   42d50:	0042cbc0 	call	42cbc <check_busy>
    IOWR_ALTERA_AVALON_LCD_16207_COMMAND(LCD_16207_0_BASE, 0x38); // 功能设置
   42d54:	00c00e04 	movi	r3,56
   42d58:	00800334 	movhi	r2,12
   42d5c:	10842804 	addi	r2,r2,4256
   42d60:	10c00035 	stwio	r3,0(r2)
    usleep(5000);
   42d64:	0104e204 	movi	r4,5000
   42d68:	005d1f00 	call	5d1f0 <usleep>
    check_busy();
   42d6c:	0042cbc0 	call	42cbc <check_busy>
    IOWR_ALTERA_AVALON_LCD_16207_COMMAND(LCD_16207_0_BASE, 0x01); // 清屏
   42d70:	00c00044 	movi	r3,1
   42d74:	00800334 	movhi	r2,12
   42d78:	10842804 	addi	r2,r2,4256
   42d7c:	10c00035 	stwio	r3,0(r2)
    usleep(5000);
   42d80:	0104e204 	movi	r4,5000
   42d84:	005d1f00 	call	5d1f0 <usleep>
    check_busy();
   42d88:	0042cbc0 	call	42cbc <check_busy>
    IOWR_ALTERA_AVALON_LCD_16207_COMMAND(LCD_16207_0_BASE, 0x06); // 地址自增模式
   42d8c:	00c00184 	movi	r3,6
   42d90:	00800334 	movhi	r2,12
   42d94:	10842804 	addi	r2,r2,4256
   42d98:	10c00035 	stwio	r3,0(r2)
    usleep(5000);
   42d9c:	0104e204 	movi	r4,5000
   42da0:	005d1f00 	call	5d1f0 <usleep>
    check_busy();
   42da4:	0042cbc0 	call	42cbc <check_busy>
    IOWR_ALTERA_AVALON_LCD_16207_COMMAND(LCD_16207_0_BASE, 0x0c); // 显示开，光标关
   42da8:	00c00304 	movi	r3,12
   42dac:	00800334 	movhi	r2,12
   42db0:	10842804 	addi	r2,r2,4256
   42db4:	10c00035 	stwio	r3,0(r2)
}
   42db8:	0001883a 	nop
   42dbc:	e037883a 	mov	sp,fp
   42dc0:	dfc00117 	ldw	ra,4(sp)
   42dc4:	df000017 	ldw	fp,0(sp)
   42dc8:	dec00204 	addi	sp,sp,8
   42dcc:	f800283a 	ret

00042dd0 <lcd_prints>:

void lcd_prints(alt_u8 *string) { // 打印字符串
   42dd0:	defffd04 	addi	sp,sp,-12
   42dd4:	dfc00215 	stw	ra,8(sp)
   42dd8:	df000115 	stw	fp,4(sp)
   42ddc:	df000104 	addi	fp,sp,4
   42de0:	e13fff15 	stw	r4,-4(fp)
    while (*string != '\0') {
   42de4:	00000a06 	br	42e10 <lcd_prints+0x40>
        check_busy();
   42de8:	0042cbc0 	call	42cbc <check_busy>
        IOWR_ALTERA_AVALON_LCD_16207_DATA(LCD_16207_0_BASE, *string);
   42dec:	e0bfff17 	ldw	r2,-4(fp)
   42df0:	10800003 	ldbu	r2,0(r2)
   42df4:	10c03fcc 	andi	r3,r2,255
   42df8:	00800334 	movhi	r2,12
   42dfc:	10842a04 	addi	r2,r2,4264
   42e00:	10c00035 	stwio	r3,0(r2)
        string++;
   42e04:	e0bfff17 	ldw	r2,-4(fp)
   42e08:	10800044 	addi	r2,r2,1
   42e0c:	e0bfff15 	stw	r2,-4(fp)
    check_busy();
    IOWR_ALTERA_AVALON_LCD_16207_COMMAND(LCD_16207_0_BASE, 0x0c); // 显示开，光标关
}

void lcd_prints(alt_u8 *string) { // 打印字符串
    while (*string != '\0') {
   42e10:	e0bfff17 	ldw	r2,-4(fp)
   42e14:	10800003 	ldbu	r2,0(r2)
   42e18:	10803fcc 	andi	r2,r2,255
   42e1c:	103ff21e 	bne	r2,zero,42de8 <_exit+0xfffa2ddc>
        check_busy();
        IOWR_ALTERA_AVALON_LCD_16207_DATA(LCD_16207_0_BASE, *string);
        string++;
    }
}
   42e20:	0001883a 	nop
   42e24:	e037883a 	mov	sp,fp
   42e28:	dfc00117 	ldw	ra,4(sp)
   42e2c:	df000017 	ldw	fp,0(sp)
   42e30:	dec00204 	addi	sp,sp,8
   42e34:	f800283a 	ret

00042e38 <select_xy>:

void select_xy(alt_u8 x, alt_u8 y) { // 选择 LCD 坐标，x=0 为第1行，x=1为第2行
   42e38:	defffc04 	addi	sp,sp,-16
   42e3c:	dfc00315 	stw	ra,12(sp)
   42e40:	df000215 	stw	fp,8(sp)
   42e44:	df000204 	addi	fp,sp,8
   42e48:	2007883a 	mov	r3,r4
   42e4c:	2805883a 	mov	r2,r5
   42e50:	e0fffe05 	stb	r3,-8(fp)
   42e54:	e0bfff05 	stb	r2,-4(fp)
    check_busy();
   42e58:	0042cbc0 	call	42cbc <check_busy>
    if (x % 2 == 0) {
   42e5c:	e0bffe03 	ldbu	r2,-8(fp)
   42e60:	1080004c 	andi	r2,r2,1
   42e64:	10803fcc 	andi	r2,r2,255
   42e68:	1000061e 	bne	r2,zero,42e84 <select_xy+0x4c>
        IOWR_ALTERA_AVALON_LCD_16207_COMMAND(LCD_16207_0_BASE, 0x80 + y);
   42e6c:	e0bfff03 	ldbu	r2,-4(fp)
   42e70:	10c02004 	addi	r3,r2,128
   42e74:	00800334 	movhi	r2,12
   42e78:	10842804 	addi	r2,r2,4256
   42e7c:	10c00035 	stwio	r3,0(r2)
    } else {
        IOWR_ALTERA_AVALON_LCD_16207_COMMAND(LCD_16207_0_BASE, 0xc0 + y);
    }
}
   42e80:	00000506 	br	42e98 <select_xy+0x60>
void select_xy(alt_u8 x, alt_u8 y) { // 选择 LCD 坐标，x=0 为第1行，x=1为第2行
    check_busy();
    if (x % 2 == 0) {
        IOWR_ALTERA_AVALON_LCD_16207_COMMAND(LCD_16207_0_BASE, 0x80 + y);
    } else {
        IOWR_ALTERA_AVALON_LCD_16207_COMMAND(LCD_16207_0_BASE, 0xc0 + y);
   42e84:	e0bfff03 	ldbu	r2,-4(fp)
   42e88:	10c03004 	addi	r3,r2,192
   42e8c:	00800334 	movhi	r2,12
   42e90:	10842804 	addi	r2,r2,4256
   42e94:	10c00035 	stwio	r3,0(r2)
    }
}
   42e98:	0001883a 	nop
   42e9c:	e037883a 	mov	sp,fp
   42ea0:	dfc00117 	ldw	ra,4(sp)
   42ea4:	df000017 	ldw	fp,0(sp)
   42ea8:	dec00204 	addi	sp,sp,8
   42eac:	f800283a 	ret

00042eb0 <cosf>:
   42eb0:	00a00034 	movhi	r2,32768
   42eb4:	defffd04 	addi	sp,sp,-12
   42eb8:	10bfffc4 	addi	r2,r2,-1
   42ebc:	00cfd274 	movhi	r3,16201
   42ec0:	dfc00215 	stw	ra,8(sp)
   42ec4:	1104703a 	and	r2,r2,r4
   42ec8:	18c3f604 	addi	r3,r3,4056
   42ecc:	1880140e 	bge	r3,r2,42f20 <cosf+0x70>
   42ed0:	00dfe034 	movhi	r3,32640
   42ed4:	18ffffc4 	addi	r3,r3,-1
   42ed8:	1880050e 	bge	r3,r2,42ef0 <cosf+0x40>
   42edc:	200b883a 	mov	r5,r4
   42ee0:	004609c0 	call	4609c <__subsf3>
   42ee4:	dfc00217 	ldw	ra,8(sp)
   42ee8:	dec00304 	addi	sp,sp,12
   42eec:	f800283a 	ret
   42ef0:	d80b883a 	mov	r5,sp
   42ef4:	00432d40 	call	432d4 <__ieee754_rem_pio2f>
   42ef8:	108000cc 	andi	r2,r2,3
   42efc:	01800044 	movi	r6,1
   42f00:	11800f26 	beq	r2,r6,42f40 <cosf+0x90>
   42f04:	00c00084 	movi	r3,2
   42f08:	d9400117 	ldw	r5,4(sp)
   42f0c:	d9000017 	ldw	r4,0(sp)
   42f10:	10c00826 	beq	r2,r3,42f34 <cosf+0x84>
   42f14:	10001026 	beq	r2,zero,42f58 <cosf+0xa8>
   42f18:	00445c80 	call	445c8 <__kernel_sinf>
   42f1c:	003ff106 	br	42ee4 <_exit+0xfffa2ed8>
   42f20:	000b883a 	mov	r5,zero
   42f24:	00437f80 	call	437f8 <__kernel_cosf>
   42f28:	dfc00217 	ldw	ra,8(sp)
   42f2c:	dec00304 	addi	sp,sp,12
   42f30:	f800283a 	ret
   42f34:	00437f80 	call	437f8 <__kernel_cosf>
   42f38:	10a0003c 	xorhi	r2,r2,32768
   42f3c:	003fe906 	br	42ee4 <_exit+0xfffa2ed8>
   42f40:	d9400117 	ldw	r5,4(sp)
   42f44:	d9000017 	ldw	r4,0(sp)
   42f48:	100d883a 	mov	r6,r2
   42f4c:	00445c80 	call	445c8 <__kernel_sinf>
   42f50:	10a0003c 	xorhi	r2,r2,32768
   42f54:	003fe306 	br	42ee4 <_exit+0xfffa2ed8>
   42f58:	00437f80 	call	437f8 <__kernel_cosf>
   42f5c:	003fe106 	br	42ee4 <_exit+0xfffa2ed8>

00042f60 <sinf>:
   42f60:	00a00034 	movhi	r2,32768
   42f64:	defffd04 	addi	sp,sp,-12
   42f68:	10bfffc4 	addi	r2,r2,-1
   42f6c:	00cfd274 	movhi	r3,16201
   42f70:	dfc00215 	stw	ra,8(sp)
   42f74:	1104703a 	and	r2,r2,r4
   42f78:	18c3f604 	addi	r3,r3,4056
   42f7c:	1880150e 	bge	r3,r2,42fd4 <sinf+0x74>
   42f80:	00dfe034 	movhi	r3,32640
   42f84:	18ffffc4 	addi	r3,r3,-1
   42f88:	1880050e 	bge	r3,r2,42fa0 <sinf+0x40>
   42f8c:	200b883a 	mov	r5,r4
   42f90:	004609c0 	call	4609c <__subsf3>
   42f94:	dfc00217 	ldw	ra,8(sp)
   42f98:	dec00304 	addi	sp,sp,12
   42f9c:	f800283a 	ret
   42fa0:	d80b883a 	mov	r5,sp
   42fa4:	00432d40 	call	432d4 <__ieee754_rem_pio2f>
   42fa8:	108000cc 	andi	r2,r2,3
   42fac:	01800044 	movi	r6,1
   42fb0:	11801126 	beq	r2,r6,42ff8 <sinf+0x98>
   42fb4:	00c00084 	movi	r3,2
   42fb8:	d9400117 	ldw	r5,4(sp)
   42fbc:	d9000017 	ldw	r4,0(sp)
   42fc0:	10c00a26 	beq	r2,r3,42fec <sinf+0x8c>
   42fc4:	10001026 	beq	r2,zero,43008 <sinf+0xa8>
   42fc8:	00437f80 	call	437f8 <__kernel_cosf>
   42fcc:	10a0003c 	xorhi	r2,r2,32768
   42fd0:	003ff006 	br	42f94 <_exit+0xfffa2f88>
   42fd4:	000d883a 	mov	r6,zero
   42fd8:	000b883a 	mov	r5,zero
   42fdc:	00445c80 	call	445c8 <__kernel_sinf>
   42fe0:	dfc00217 	ldw	ra,8(sp)
   42fe4:	dec00304 	addi	sp,sp,12
   42fe8:	f800283a 	ret
   42fec:	00445c80 	call	445c8 <__kernel_sinf>
   42ff0:	10a0003c 	xorhi	r2,r2,32768
   42ff4:	003fe706 	br	42f94 <_exit+0xfffa2f88>
   42ff8:	d9400117 	ldw	r5,4(sp)
   42ffc:	d9000017 	ldw	r4,0(sp)
   43000:	00437f80 	call	437f8 <__kernel_cosf>
   43004:	003fe306 	br	42f94 <_exit+0xfffa2f88>
   43008:	00445c80 	call	445c8 <__kernel_sinf>
   4300c:	003fe106 	br	42f94 <_exit+0xfffa2f88>

00043010 <atan2>:
   43010:	00430141 	jmpi	43014 <__ieee754_atan2>

00043014 <__ieee754_atan2>:
   43014:	3013883a 	mov	r9,r6
   43018:	0185c83a 	sub	r2,zero,r6
   4301c:	1244b03a 	or	r2,r2,r9
   43020:	01a00034 	movhi	r6,32768
   43024:	1004d7fa 	srli	r2,r2,31
   43028:	31bfffc4 	addi	r6,r6,-1
   4302c:	defffe04 	addi	sp,sp,-8
   43030:	3996703a 	and	r11,r7,r6
   43034:	3815883a 	mov	r10,r7
   43038:	dfc00115 	stw	ra,4(sp)
   4303c:	dc000015 	stw	r16,0(sp)
   43040:	12c4b03a 	or	r2,r2,r11
   43044:	01dffc34 	movhi	r7,32752
   43048:	2011883a 	mov	r8,r4
   4304c:	2807883a 	mov	r3,r5
   43050:	38803836 	bltu	r7,r2,43134 <__ieee754_atan2+0x120>
   43054:	0105c83a 	sub	r2,zero,r4
   43058:	1104b03a 	or	r2,r2,r4
   4305c:	1004d7fa 	srli	r2,r2,31
   43060:	298c703a 	and	r6,r5,r6
   43064:	1184b03a 	or	r2,r2,r6
   43068:	38803236 	bltu	r7,r2,43134 <__ieee754_atan2+0x120>
   4306c:	00b00434 	movhi	r2,49168
   43070:	5085883a 	add	r2,r10,r2
   43074:	1244b03a 	or	r2,r2,r9
   43078:	10004626 	beq	r2,zero,43194 <__ieee754_atan2+0x180>
   4307c:	5005d7ba 	srai	r2,r10,30
   43080:	2820d7fa 	srli	r16,r5,31
   43084:	2188b03a 	or	r4,r4,r6
   43088:	1080008c 	andi	r2,r2,2
   4308c:	1420b03a 	or	r16,r2,r16
   43090:	20003126 	beq	r4,zero,43158 <__ieee754_atan2+0x144>
   43094:	4ac4b03a 	or	r2,r9,r11
   43098:	10003826 	beq	r2,zero,4317c <__ieee754_atan2+0x168>
   4309c:	59c05026 	beq	r11,r7,431e0 <__ieee754_atan2+0x1cc>
   430a0:	31c03626 	beq	r6,r7,4317c <__ieee754_atan2+0x168>
   430a4:	32cdc83a 	sub	r6,r6,r11
   430a8:	300dd53a 	srai	r6,r6,20
   430ac:	00800f04 	movi	r2,60
   430b0:	11803e16 	blt	r2,r6,431ac <__ieee754_atan2+0x198>
   430b4:	50006616 	blt	r10,zero,43250 <__ieee754_atan2+0x23c>
   430b8:	4009883a 	mov	r4,r8
   430bc:	480d883a 	mov	r6,r9
   430c0:	500f883a 	mov	r7,r10
   430c4:	180b883a 	mov	r5,r3
   430c8:	0046fc00 	call	46fc0 <__divdf3>
   430cc:	1009883a 	mov	r4,r2
   430d0:	180b883a 	mov	r5,r3
   430d4:	0044d080 	call	44d08 <fabs>
   430d8:	180b883a 	mov	r5,r3
   430dc:	1009883a 	mov	r4,r2
   430e0:	00447800 	call	44780 <atan>
   430e4:	180b883a 	mov	r5,r3
   430e8:	01000044 	movi	r4,1
   430ec:	81005626 	beq	r16,r4,43248 <__ieee754_atan2+0x234>
   430f0:	01000084 	movi	r4,2
   430f4:	81004626 	beq	r16,r4,43210 <__ieee754_atan2+0x1fc>
   430f8:	80004326 	beq	r16,zero,43208 <__ieee754_atan2+0x1f4>
   430fc:	018cc534 	movhi	r6,13076
   43100:	01cf28b4 	movhi	r7,15522
   43104:	319701c4 	addi	r6,r6,23559
   43108:	39e98984 	addi	r7,r7,-23002
   4310c:	1009883a 	mov	r4,r2
   43110:	00483cc0 	call	483cc <__subdf3>
   43114:	01951134 	movhi	r6,21572
   43118:	01d00274 	movhi	r7,16393
   4311c:	318b4604 	addi	r6,r6,11544
   43120:	39c87ec4 	addi	r7,r7,8699
   43124:	1009883a 	mov	r4,r2
   43128:	180b883a 	mov	r5,r3
   4312c:	00483cc0 	call	483cc <__subdf3>
   43130:	00000506 	br	43148 <__ieee754_atan2+0x134>
   43134:	400d883a 	mov	r6,r8
   43138:	180f883a 	mov	r7,r3
   4313c:	4809883a 	mov	r4,r9
   43140:	500b883a 	mov	r5,r10
   43144:	00467140 	call	46714 <__adddf3>
   43148:	dfc00117 	ldw	ra,4(sp)
   4314c:	dc000017 	ldw	r16,0(sp)
   43150:	dec00204 	addi	sp,sp,8
   43154:	f800283a 	ret
   43158:	00800084 	movi	r2,2
   4315c:	80801826 	beq	r16,r2,431c0 <__ieee754_atan2+0x1ac>
   43160:	008000c4 	movi	r2,3
   43164:	80800f1e 	bne	r16,r2,431a4 <__ieee754_atan2+0x190>
   43168:	00951134 	movhi	r2,21572
   4316c:	00f00274 	movhi	r3,49161
   43170:	108b4604 	addi	r2,r2,11544
   43174:	18c87ec4 	addi	r3,r3,8699
   43178:	003ff306 	br	43148 <_exit+0xfffa313c>
   4317c:	00951134 	movhi	r2,21572
   43180:	108b4604 	addi	r2,r2,11544
   43184:	18001316 	blt	r3,zero,431d4 <__ieee754_atan2+0x1c0>
   43188:	00cffe74 	movhi	r3,16377
   4318c:	18c87ec4 	addi	r3,r3,8699
   43190:	003fed06 	br	43148 <_exit+0xfffa313c>
   43194:	dfc00117 	ldw	ra,4(sp)
   43198:	dc000017 	ldw	r16,0(sp)
   4319c:	dec00204 	addi	sp,sp,8
   431a0:	00447801 	jmpi	44780 <atan>
   431a4:	4005883a 	mov	r2,r8
   431a8:	003fe706 	br	43148 <_exit+0xfffa313c>
   431ac:	00951134 	movhi	r2,21572
   431b0:	014ffe74 	movhi	r5,16377
   431b4:	108b4604 	addi	r2,r2,11544
   431b8:	29487ec4 	addi	r5,r5,8699
   431bc:	003fca06 	br	430e8 <_exit+0xfffa30dc>
   431c0:	00951134 	movhi	r2,21572
   431c4:	00d00274 	movhi	r3,16393
   431c8:	108b4604 	addi	r2,r2,11544
   431cc:	18c87ec4 	addi	r3,r3,8699
   431d0:	003fdd06 	br	43148 <_exit+0xfffa313c>
   431d4:	00effe74 	movhi	r3,49145
   431d8:	18c87ec4 	addi	r3,r3,8699
   431dc:	003fda06 	br	43148 <_exit+0xfffa313c>
   431e0:	00800084 	movi	r2,2
   431e4:	32c01f26 	beq	r6,r11,43264 <__ieee754_atan2+0x250>
   431e8:	80bff526 	beq	r16,r2,431c0 <_exit+0xfffa31b4>
   431ec:	008000c4 	movi	r2,3
   431f0:	80bfdd26 	beq	r16,r2,43168 <_exit+0xfffa315c>
   431f4:	00800044 	movi	r2,1
   431f8:	80802426 	beq	r16,r2,4328c <__ieee754_atan2+0x278>
   431fc:	0005883a 	mov	r2,zero
   43200:	0007883a 	mov	r3,zero
   43204:	003fd006 	br	43148 <_exit+0xfffa313c>
   43208:	2807883a 	mov	r3,r5
   4320c:	003fce06 	br	43148 <_exit+0xfffa313c>
   43210:	018cc534 	movhi	r6,13076
   43214:	01cf28b4 	movhi	r7,15522
   43218:	319701c4 	addi	r6,r6,23559
   4321c:	39e98984 	addi	r7,r7,-23002
   43220:	1009883a 	mov	r4,r2
   43224:	00483cc0 	call	483cc <__subdf3>
   43228:	01151134 	movhi	r4,21572
   4322c:	01500274 	movhi	r5,16393
   43230:	100d883a 	mov	r6,r2
   43234:	180f883a 	mov	r7,r3
   43238:	210b4604 	addi	r4,r4,11544
   4323c:	29487ec4 	addi	r5,r5,8699
   43240:	00483cc0 	call	483cc <__subdf3>
   43244:	003fc006 	br	43148 <_exit+0xfffa313c>
   43248:	28e0003c 	xorhi	r3,r5,32768
   4324c:	003fbe06 	br	43148 <_exit+0xfffa313c>
   43250:	00bff104 	movi	r2,-60
   43254:	30bf980e 	bge	r6,r2,430b8 <_exit+0xfffa30ac>
   43258:	0005883a 	mov	r2,zero
   4325c:	000b883a 	mov	r5,zero
   43260:	003fa106 	br	430e8 <_exit+0xfffa30dc>
   43264:	80801626 	beq	r16,r2,432c0 <__ieee754_atan2+0x2ac>
   43268:	008000c4 	movi	r2,3
   4326c:	80800f26 	beq	r16,r2,432ac <__ieee754_atan2+0x298>
   43270:	00800044 	movi	r2,1
   43274:	80800826 	beq	r16,r2,43298 <__ieee754_atan2+0x284>
   43278:	00951134 	movhi	r2,21572
   4327c:	00cffa74 	movhi	r3,16361
   43280:	108b4604 	addi	r2,r2,11544
   43284:	18c87ec4 	addi	r3,r3,8699
   43288:	003faf06 	br	43148 <_exit+0xfffa313c>
   4328c:	0005883a 	mov	r2,zero
   43290:	00e00034 	movhi	r3,32768
   43294:	003fac06 	br	43148 <_exit+0xfffa313c>
   43298:	00951134 	movhi	r2,21572
   4329c:	00effa74 	movhi	r3,49129
   432a0:	108b4604 	addi	r2,r2,11544
   432a4:	18c87ec4 	addi	r3,r3,8699
   432a8:	003fa706 	br	43148 <_exit+0xfffa313c>
   432ac:	009fccf4 	movhi	r2,32563
   432b0:	00f000f4 	movhi	r3,49155
   432b4:	10887484 	addi	r2,r2,8658
   432b8:	18f65f04 	addi	r3,r3,-9860
   432bc:	003fa206 	br	43148 <_exit+0xfffa313c>
   432c0:	009fccf4 	movhi	r2,32563
   432c4:	00d000f4 	movhi	r3,16387
   432c8:	10887484 	addi	r2,r2,8658
   432cc:	18f65f04 	addi	r3,r3,-9860
   432d0:	003f9d06 	br	43148 <_exit+0xfffa313c>

000432d4 <__ieee754_rem_pio2f>:
   432d4:	defff104 	addi	sp,sp,-60
   432d8:	dc000515 	stw	r16,20(sp)
   432dc:	04200034 	movhi	r16,32768
   432e0:	843fffc4 	addi	r16,r16,-1
   432e4:	00cfd274 	movhi	r3,16201
   432e8:	dfc00e15 	stw	ra,56(sp)
   432ec:	df000d15 	stw	fp,52(sp)
   432f0:	ddc00c15 	stw	r23,48(sp)
   432f4:	dd800b15 	stw	r22,44(sp)
   432f8:	dd400a15 	stw	r21,40(sp)
   432fc:	dd000915 	stw	r20,36(sp)
   43300:	dcc00815 	stw	r19,32(sp)
   43304:	dc800715 	stw	r18,28(sp)
   43308:	dc400615 	stw	r17,24(sp)
   4330c:	8120703a 	and	r16,r16,r4
   43310:	18c3f604 	addi	r3,r3,4056
   43314:	1c005d0e 	bge	r3,r16,4348c <__ieee754_rem_pio2f+0x1b8>
   43318:	00d005f4 	movhi	r3,16407
   4331c:	18f2f8c4 	addi	r3,r3,-13341
   43320:	2027883a 	mov	r19,r4
   43324:	2823883a 	mov	r17,r5
   43328:	1c001916 	blt	r3,r16,43390 <__ieee754_rem_pio2f+0xbc>
   4332c:	014ff274 	movhi	r5,16329
   43330:	2943e004 	addi	r5,r5,3968
   43334:	0100c00e 	bge	zero,r4,43638 <__ieee754_rem_pio2f+0x364>
   43338:	004609c0 	call	4609c <__subsf3>
   4333c:	1025883a 	mov	r18,r2
   43340:	00bffc04 	movi	r2,-16
   43344:	80a0703a 	and	r16,r16,r2
   43348:	008ff274 	movhi	r2,16329
   4334c:	1083f404 	addi	r2,r2,4048
   43350:	014dcd74 	movhi	r5,14133
   43354:	80806226 	beq	r16,r2,434e0 <__ieee754_rem_pio2f+0x20c>
   43358:	295110c4 	addi	r5,r5,17475
   4335c:	9009883a 	mov	r4,r18
   43360:	004609c0 	call	4609c <__subsf3>
   43364:	100b883a 	mov	r5,r2
   43368:	9009883a 	mov	r4,r18
   4336c:	88800015 	stw	r2,0(r17)
   43370:	004609c0 	call	4609c <__subsf3>
   43374:	014dcd74 	movhi	r5,14133
   43378:	295110c4 	addi	r5,r5,17475
   4337c:	1009883a 	mov	r4,r2
   43380:	004609c0 	call	4609c <__subsf3>
   43384:	88800115 	stw	r2,4(r17)
   43388:	00800044 	movi	r2,1
   4338c:	00004206 	br	43498 <__ieee754_rem_pio2f+0x1c4>
   43390:	00d0d274 	movhi	r3,17225
   43394:	18c3e004 	addi	r3,r3,3968
   43398:	1c00640e 	bge	r3,r16,4352c <__ieee754_rem_pio2f+0x258>
   4339c:	00dfe034 	movhi	r3,32640
   433a0:	18ffffc4 	addi	r3,r3,-1
   433a4:	1c004816 	blt	r3,r16,434c8 <__ieee754_rem_pio2f+0x1f4>
   433a8:	8025d5fa 	srai	r18,r16,23
   433ac:	94bfde84 	addi	r18,r18,-134
   433b0:	900495fa 	slli	r2,r18,23
   433b4:	80a1c83a 	sub	r16,r16,r2
   433b8:	8009883a 	mov	r4,r16
   433bc:	00465800 	call	46580 <__fixsfsi>
   433c0:	1009883a 	mov	r4,r2
   433c4:	00465f00 	call	465f0 <__floatsisf>
   433c8:	8009883a 	mov	r4,r16
   433cc:	100b883a 	mov	r5,r2
   433d0:	d8800215 	stw	r2,8(sp)
   433d4:	004609c0 	call	4609c <__subsf3>
   433d8:	0150e034 	movhi	r5,17280
   433dc:	1009883a 	mov	r4,r2
   433e0:	0045c6c0 	call	45c6c <__mulsf3>
   433e4:	1009883a 	mov	r4,r2
   433e8:	1029883a 	mov	r20,r2
   433ec:	00465800 	call	46580 <__fixsfsi>
   433f0:	1009883a 	mov	r4,r2
   433f4:	00465f00 	call	465f0 <__floatsisf>
   433f8:	100b883a 	mov	r5,r2
   433fc:	a009883a 	mov	r4,r20
   43400:	1021883a 	mov	r16,r2
   43404:	d8800315 	stw	r2,12(sp)
   43408:	004609c0 	call	4609c <__subsf3>
   4340c:	0150e034 	movhi	r5,17280
   43410:	1009883a 	mov	r4,r2
   43414:	0045c6c0 	call	45c6c <__mulsf3>
   43418:	000b883a 	mov	r5,zero
   4341c:	1009883a 	mov	r4,r2
   43420:	d8800415 	stw	r2,16(sp)
   43424:	0045a700 	call	45a70 <__eqsf2>
   43428:	1000d81e 	bne	r2,zero,4378c <__ieee754_rem_pio2f+0x4b8>
   4342c:	000b883a 	mov	r5,zero
   43430:	8009883a 	mov	r4,r16
   43434:	0045a700 	call	45a70 <__eqsf2>
   43438:	100f003a 	cmpeq	r7,r2,zero
   4343c:	00800084 	movi	r2,2
   43440:	11cfc83a 	sub	r7,r2,r7
   43444:	00800084 	movi	r2,2
   43448:	d8800015 	stw	r2,0(sp)
   4344c:	008001b4 	movhi	r2,6
   43450:	10bf4c04 	addi	r2,r2,-720
   43454:	d8800115 	stw	r2,4(sp)
   43458:	900d883a 	mov	r6,r18
   4345c:	880b883a 	mov	r5,r17
   43460:	d9000204 	addi	r4,sp,8
   43464:	0043ac40 	call	43ac4 <__kernel_rem_pio2f>
   43468:	98000b0e 	bge	r19,zero,43498 <__ieee754_rem_pio2f+0x1c4>
   4346c:	89000017 	ldw	r4,0(r17)
   43470:	88c00117 	ldw	r3,4(r17)
   43474:	0085c83a 	sub	r2,zero,r2
   43478:	2120003c 	xorhi	r4,r4,32768
   4347c:	18e0003c 	xorhi	r3,r3,32768
   43480:	89000015 	stw	r4,0(r17)
   43484:	88c00115 	stw	r3,4(r17)
   43488:	00000306 	br	43498 <__ieee754_rem_pio2f+0x1c4>
   4348c:	29000015 	stw	r4,0(r5)
   43490:	28000115 	stw	zero,4(r5)
   43494:	0005883a 	mov	r2,zero
   43498:	dfc00e17 	ldw	ra,56(sp)
   4349c:	df000d17 	ldw	fp,52(sp)
   434a0:	ddc00c17 	ldw	r23,48(sp)
   434a4:	dd800b17 	ldw	r22,44(sp)
   434a8:	dd400a17 	ldw	r21,40(sp)
   434ac:	dd000917 	ldw	r20,36(sp)
   434b0:	dcc00817 	ldw	r19,32(sp)
   434b4:	dc800717 	ldw	r18,28(sp)
   434b8:	dc400617 	ldw	r17,24(sp)
   434bc:	dc000517 	ldw	r16,20(sp)
   434c0:	dec00f04 	addi	sp,sp,60
   434c4:	f800283a 	ret
   434c8:	200b883a 	mov	r5,r4
   434cc:	004609c0 	call	4609c <__subsf3>
   434d0:	88800115 	stw	r2,4(r17)
   434d4:	88800015 	stw	r2,0(r17)
   434d8:	0005883a 	mov	r2,zero
   434dc:	003fee06 	br	43498 <_exit+0xfffa348c>
   434e0:	29510004 	addi	r5,r5,17408
   434e4:	9009883a 	mov	r4,r18
   434e8:	004609c0 	call	4609c <__subsf3>
   434ec:	014ba1b4 	movhi	r5,11910
   434f0:	2968c204 	addi	r5,r5,-23800
   434f4:	1009883a 	mov	r4,r2
   434f8:	1021883a 	mov	r16,r2
   434fc:	004609c0 	call	4609c <__subsf3>
   43500:	100b883a 	mov	r5,r2
   43504:	8009883a 	mov	r4,r16
   43508:	88800015 	stw	r2,0(r17)
   4350c:	004609c0 	call	4609c <__subsf3>
   43510:	014ba1b4 	movhi	r5,11910
   43514:	2968c204 	addi	r5,r5,-23800
   43518:	1009883a 	mov	r4,r2
   4351c:	004609c0 	call	4609c <__subsf3>
   43520:	88800115 	stw	r2,4(r17)
   43524:	00800044 	movi	r2,1
   43528:	003fdb06 	br	43498 <_exit+0xfffa348c>
   4352c:	0044d1c0 	call	44d1c <fabsf>
   43530:	014fc8f4 	movhi	r5,16163
   43534:	297e6104 	addi	r5,r5,-1660
   43538:	1009883a 	mov	r4,r2
   4353c:	102b883a 	mov	r21,r2
   43540:	0045c6c0 	call	45c6c <__mulsf3>
   43544:	014fc034 	movhi	r5,16128
   43548:	1009883a 	mov	r4,r2
   4354c:	00451680 	call	45168 <__addsf3>
   43550:	1009883a 	mov	r4,r2
   43554:	00465800 	call	46580 <__fixsfsi>
   43558:	1009883a 	mov	r4,r2
   4355c:	1025883a 	mov	r18,r2
   43560:	00465f00 	call	465f0 <__floatsisf>
   43564:	014ff274 	movhi	r5,16329
   43568:	2943e004 	addi	r5,r5,3968
   4356c:	1009883a 	mov	r4,r2
   43570:	1029883a 	mov	r20,r2
   43574:	0045c6c0 	call	45c6c <__mulsf3>
   43578:	a809883a 	mov	r4,r21
   4357c:	100b883a 	mov	r5,r2
   43580:	004609c0 	call	4609c <__subsf3>
   43584:	014dcd74 	movhi	r5,14133
   43588:	295110c4 	addi	r5,r5,17475
   4358c:	a009883a 	mov	r4,r20
   43590:	102f883a 	mov	r23,r2
   43594:	102d883a 	mov	r22,r2
   43598:	0045c6c0 	call	45c6c <__mulsf3>
   4359c:	00c007c4 	movi	r3,31
   435a0:	102b883a 	mov	r21,r2
   435a4:	100b883a 	mov	r5,r2
   435a8:	1c800f16 	blt	r3,r18,435e8 <__ieee754_rem_pio2f+0x314>
   435ac:	90ffffc4 	addi	r3,r18,-1
   435b0:	18c7883a 	add	r3,r3,r3
   435b4:	010001b4 	movhi	r4,6
   435b8:	213f2c04 	addi	r4,r4,-848
   435bc:	18c7883a 	add	r3,r3,r3
   435c0:	20c7883a 	add	r3,r4,r3
   435c4:	19000017 	ldw	r4,0(r3)
   435c8:	00ffc004 	movi	r3,-256
   435cc:	80c6703a 	and	r3,r16,r3
   435d0:	19000526 	beq	r3,r4,435e8 <__ieee754_rem_pio2f+0x314>
   435d4:	b809883a 	mov	r4,r23
   435d8:	004609c0 	call	4609c <__subsf3>
   435dc:	1039883a 	mov	fp,r2
   435e0:	88800015 	stw	r2,0(r17)
   435e4:	00000a06 	br	43610 <__ieee754_rem_pio2f+0x33c>
   435e8:	b809883a 	mov	r4,r23
   435ec:	004609c0 	call	4609c <__subsf3>
   435f0:	1006d5fa 	srli	r3,r2,23
   435f4:	8021d5fa 	srai	r16,r16,23
   435f8:	01000204 	movi	r4,8
   435fc:	18c03fcc 	andi	r3,r3,255
   43600:	80c7c83a 	sub	r3,r16,r3
   43604:	1039883a 	mov	fp,r2
   43608:	20c02116 	blt	r4,r3,43690 <__ieee754_rem_pio2f+0x3bc>
   4360c:	88800015 	stw	r2,0(r17)
   43610:	e00b883a 	mov	r5,fp
   43614:	b009883a 	mov	r4,r22
   43618:	004609c0 	call	4609c <__subsf3>
   4361c:	a80b883a 	mov	r5,r21
   43620:	1009883a 	mov	r4,r2
   43624:	004609c0 	call	4609c <__subsf3>
   43628:	88800115 	stw	r2,4(r17)
   4362c:	98005916 	blt	r19,zero,43794 <__ieee754_rem_pio2f+0x4c0>
   43630:	9005883a 	mov	r2,r18
   43634:	003f9806 	br	43498 <_exit+0xfffa348c>
   43638:	00451680 	call	45168 <__addsf3>
   4363c:	1025883a 	mov	r18,r2
   43640:	00bffc04 	movi	r2,-16
   43644:	80a0703a 	and	r16,r16,r2
   43648:	008ff274 	movhi	r2,16329
   4364c:	1083f404 	addi	r2,r2,4048
   43650:	014dcd74 	movhi	r5,14133
   43654:	80805526 	beq	r16,r2,437ac <__ieee754_rem_pio2f+0x4d8>
   43658:	295110c4 	addi	r5,r5,17475
   4365c:	9009883a 	mov	r4,r18
   43660:	00451680 	call	45168 <__addsf3>
   43664:	100b883a 	mov	r5,r2
   43668:	9009883a 	mov	r4,r18
   4366c:	88800015 	stw	r2,0(r17)
   43670:	004609c0 	call	4609c <__subsf3>
   43674:	014dcd74 	movhi	r5,14133
   43678:	295110c4 	addi	r5,r5,17475
   4367c:	1009883a 	mov	r4,r2
   43680:	00451680 	call	45168 <__addsf3>
   43684:	88800115 	stw	r2,4(r17)
   43688:	00bfffc4 	movi	r2,-1
   4368c:	003f8206 	br	43498 <_exit+0xfffa348c>
   43690:	014dcd74 	movhi	r5,14133
   43694:	29510004 	addi	r5,r5,17408
   43698:	a009883a 	mov	r4,r20
   4369c:	0045c6c0 	call	45c6c <__mulsf3>
   436a0:	100b883a 	mov	r5,r2
   436a4:	b809883a 	mov	r4,r23
   436a8:	102b883a 	mov	r21,r2
   436ac:	004609c0 	call	4609c <__subsf3>
   436b0:	100b883a 	mov	r5,r2
   436b4:	b809883a 	mov	r4,r23
   436b8:	102d883a 	mov	r22,r2
   436bc:	004609c0 	call	4609c <__subsf3>
   436c0:	a80b883a 	mov	r5,r21
   436c4:	1009883a 	mov	r4,r2
   436c8:	004609c0 	call	4609c <__subsf3>
   436cc:	014ba1b4 	movhi	r5,11910
   436d0:	2968c204 	addi	r5,r5,-23800
   436d4:	a009883a 	mov	r4,r20
   436d8:	102b883a 	mov	r21,r2
   436dc:	0045c6c0 	call	45c6c <__mulsf3>
   436e0:	a80b883a 	mov	r5,r21
   436e4:	1009883a 	mov	r4,r2
   436e8:	004609c0 	call	4609c <__subsf3>
   436ec:	100b883a 	mov	r5,r2
   436f0:	b009883a 	mov	r4,r22
   436f4:	102b883a 	mov	r21,r2
   436f8:	004609c0 	call	4609c <__subsf3>
   436fc:	1006d5fa 	srli	r3,r2,23
   43700:	1039883a 	mov	fp,r2
   43704:	18c03fcc 	andi	r3,r3,255
   43708:	80e1c83a 	sub	r16,r16,r3
   4370c:	00c00644 	movi	r3,25
   43710:	1c3fbe0e 	bge	r3,r16,4360c <_exit+0xfffa3600>
   43714:	014ba1b4 	movhi	r5,11910
   43718:	2968c004 	addi	r5,r5,-23808
   4371c:	a009883a 	mov	r4,r20
   43720:	0045c6c0 	call	45c6c <__mulsf3>
   43724:	b009883a 	mov	r4,r22
   43728:	100b883a 	mov	r5,r2
   4372c:	102b883a 	mov	r21,r2
   43730:	004609c0 	call	4609c <__subsf3>
   43734:	b009883a 	mov	r4,r22
   43738:	100b883a 	mov	r5,r2
   4373c:	1021883a 	mov	r16,r2
   43740:	004609c0 	call	4609c <__subsf3>
   43744:	a80b883a 	mov	r5,r21
   43748:	1009883a 	mov	r4,r2
   4374c:	004609c0 	call	4609c <__subsf3>
   43750:	01492374 	movhi	r5,9357
   43754:	294c4c84 	addi	r5,r5,12594
   43758:	a009883a 	mov	r4,r20
   4375c:	102b883a 	mov	r21,r2
   43760:	0045c6c0 	call	45c6c <__mulsf3>
   43764:	a80b883a 	mov	r5,r21
   43768:	1009883a 	mov	r4,r2
   4376c:	004609c0 	call	4609c <__subsf3>
   43770:	100b883a 	mov	r5,r2
   43774:	8009883a 	mov	r4,r16
   43778:	102b883a 	mov	r21,r2
   4377c:	004609c0 	call	4609c <__subsf3>
   43780:	802d883a 	mov	r22,r16
   43784:	1039883a 	mov	fp,r2
   43788:	003fa006 	br	4360c <_exit+0xfffa3600>
   4378c:	01c000c4 	movi	r7,3
   43790:	003f2c06 	br	43444 <_exit+0xfffa3438>
   43794:	10a0003c 	xorhi	r2,r2,32768
   43798:	e720003c 	xorhi	fp,fp,32768
   4379c:	88800115 	stw	r2,4(r17)
   437a0:	8f000015 	stw	fp,0(r17)
   437a4:	0485c83a 	sub	r2,zero,r18
   437a8:	003f3b06 	br	43498 <_exit+0xfffa348c>
   437ac:	29510004 	addi	r5,r5,17408
   437b0:	9009883a 	mov	r4,r18
   437b4:	00451680 	call	45168 <__addsf3>
   437b8:	014ba1b4 	movhi	r5,11910
   437bc:	2968c204 	addi	r5,r5,-23800
   437c0:	1009883a 	mov	r4,r2
   437c4:	1021883a 	mov	r16,r2
   437c8:	00451680 	call	45168 <__addsf3>
   437cc:	100b883a 	mov	r5,r2
   437d0:	8009883a 	mov	r4,r16
   437d4:	88800015 	stw	r2,0(r17)
   437d8:	004609c0 	call	4609c <__subsf3>
   437dc:	014ba1b4 	movhi	r5,11910
   437e0:	2968c204 	addi	r5,r5,-23800
   437e4:	1009883a 	mov	r4,r2
   437e8:	00451680 	call	45168 <__addsf3>
   437ec:	88800115 	stw	r2,4(r17)
   437f0:	00bfffc4 	movi	r2,-1
   437f4:	003f2806 	br	43498 <_exit+0xfffa348c>

000437f8 <__kernel_cosf>:
   437f8:	defff804 	addi	sp,sp,-32
   437fc:	dc000015 	stw	r16,0(sp)
   43800:	04200034 	movhi	r16,32768
   43804:	843fffc4 	addi	r16,r16,-1
   43808:	008c8034 	movhi	r2,12800
   4380c:	dcc00315 	stw	r19,12(sp)
   43810:	dc800215 	stw	r18,8(sp)
   43814:	dfc00715 	stw	ra,28(sp)
   43818:	dd800615 	stw	r22,24(sp)
   4381c:	dd400515 	stw	r21,20(sp)
   43820:	dd000415 	stw	r20,16(sp)
   43824:	dc400115 	stw	r17,4(sp)
   43828:	8120703a 	and	r16,r16,r4
   4382c:	10bfffc4 	addi	r2,r2,-1
   43830:	2025883a 	mov	r18,r4
   43834:	2827883a 	mov	r19,r5
   43838:	14004416 	blt	r2,r16,4394c <__kernel_cosf+0x154>
   4383c:	00465800 	call	46580 <__fixsfsi>
   43840:	10009e26 	beq	r2,zero,43abc <__kernel_cosf+0x2c4>
   43844:	900b883a 	mov	r5,r18
   43848:	9009883a 	mov	r4,r18
   4384c:	0045c6c0 	call	45c6c <__mulsf3>
   43850:	016b5234 	movhi	r5,44360
   43854:	2975d384 	addi	r5,r5,-10418
   43858:	1009883a 	mov	r4,r2
   4385c:	1021883a 	mov	r16,r2
   43860:	102b883a 	mov	r21,r2
   43864:	0045c6c0 	call	45c6c <__mulsf3>
   43868:	014c43f4 	movhi	r5,12559
   4386c:	295d3d84 	addi	r5,r5,29942
   43870:	1009883a 	mov	r4,r2
   43874:	00451680 	call	45168 <__addsf3>
   43878:	800b883a 	mov	r5,r16
   4387c:	1009883a 	mov	r4,r2
   43880:	0045c6c0 	call	45c6c <__mulsf3>
   43884:	014d2534 	movhi	r5,13460
   43888:	297c9f04 	addi	r5,r5,-3460
   4388c:	1009883a 	mov	r4,r2
   43890:	004609c0 	call	4609c <__subsf3>
   43894:	800b883a 	mov	r5,r16
   43898:	1009883a 	mov	r4,r2
   4389c:	0045c6c0 	call	45c6c <__mulsf3>
   438a0:	014df434 	movhi	r5,14288
   438a4:	29434044 	addi	r5,r5,3329
   438a8:	1009883a 	mov	r4,r2
   438ac:	00451680 	call	45168 <__addsf3>
   438b0:	800b883a 	mov	r5,r16
   438b4:	1009883a 	mov	r4,r2
   438b8:	0045c6c0 	call	45c6c <__mulsf3>
   438bc:	014eadb4 	movhi	r5,15030
   438c0:	2942d844 	addi	r5,r5,2913
   438c4:	1009883a 	mov	r4,r2
   438c8:	004609c0 	call	4609c <__subsf3>
   438cc:	800b883a 	mov	r5,r16
   438d0:	1009883a 	mov	r4,r2
   438d4:	0045c6c0 	call	45c6c <__mulsf3>
   438d8:	014f4af4 	movhi	r5,15659
   438dc:	296aaac4 	addi	r5,r5,-21845
   438e0:	1009883a 	mov	r4,r2
   438e4:	00451680 	call	45168 <__addsf3>
   438e8:	800b883a 	mov	r5,r16
   438ec:	1009883a 	mov	r4,r2
   438f0:	0045c6c0 	call	45c6c <__mulsf3>
   438f4:	102d883a 	mov	r22,r2
   438f8:	a809883a 	mov	r4,r21
   438fc:	014fc034 	movhi	r5,16128
   43900:	0045c6c0 	call	45c6c <__mulsf3>
   43904:	b00b883a 	mov	r5,r22
   43908:	a809883a 	mov	r4,r21
   4390c:	1021883a 	mov	r16,r2
   43910:	0045c6c0 	call	45c6c <__mulsf3>
   43914:	980b883a 	mov	r5,r19
   43918:	9009883a 	mov	r4,r18
   4391c:	1023883a 	mov	r17,r2
   43920:	0045c6c0 	call	45c6c <__mulsf3>
   43924:	8809883a 	mov	r4,r17
   43928:	100b883a 	mov	r5,r2
   4392c:	004609c0 	call	4609c <__subsf3>
   43930:	8009883a 	mov	r4,r16
   43934:	100b883a 	mov	r5,r2
   43938:	004609c0 	call	4609c <__subsf3>
   4393c:	100b883a 	mov	r5,r2
   43940:	010fe034 	movhi	r4,16256
   43944:	004609c0 	call	4609c <__subsf3>
   43948:	00004f06 	br	43a88 <__kernel_cosf+0x290>
   4394c:	200b883a 	mov	r5,r4
   43950:	0045c6c0 	call	45c6c <__mulsf3>
   43954:	016b5234 	movhi	r5,44360
   43958:	2975d384 	addi	r5,r5,-10418
   4395c:	1009883a 	mov	r4,r2
   43960:	1023883a 	mov	r17,r2
   43964:	102b883a 	mov	r21,r2
   43968:	0045c6c0 	call	45c6c <__mulsf3>
   4396c:	014c43f4 	movhi	r5,12559
   43970:	295d3d84 	addi	r5,r5,29942
   43974:	1009883a 	mov	r4,r2
   43978:	00451680 	call	45168 <__addsf3>
   4397c:	880b883a 	mov	r5,r17
   43980:	1009883a 	mov	r4,r2
   43984:	0045c6c0 	call	45c6c <__mulsf3>
   43988:	014d2534 	movhi	r5,13460
   4398c:	297c9f04 	addi	r5,r5,-3460
   43990:	1009883a 	mov	r4,r2
   43994:	004609c0 	call	4609c <__subsf3>
   43998:	880b883a 	mov	r5,r17
   4399c:	1009883a 	mov	r4,r2
   439a0:	0045c6c0 	call	45c6c <__mulsf3>
   439a4:	014df434 	movhi	r5,14288
   439a8:	29434044 	addi	r5,r5,3329
   439ac:	1009883a 	mov	r4,r2
   439b0:	00451680 	call	45168 <__addsf3>
   439b4:	880b883a 	mov	r5,r17
   439b8:	1009883a 	mov	r4,r2
   439bc:	0045c6c0 	call	45c6c <__mulsf3>
   439c0:	014eadb4 	movhi	r5,15030
   439c4:	2942d844 	addi	r5,r5,2913
   439c8:	1009883a 	mov	r4,r2
   439cc:	004609c0 	call	4609c <__subsf3>
   439d0:	880b883a 	mov	r5,r17
   439d4:	1009883a 	mov	r4,r2
   439d8:	0045c6c0 	call	45c6c <__mulsf3>
   439dc:	014f4af4 	movhi	r5,15659
   439e0:	296aaac4 	addi	r5,r5,-21845
   439e4:	1009883a 	mov	r4,r2
   439e8:	00451680 	call	45168 <__addsf3>
   439ec:	880b883a 	mov	r5,r17
   439f0:	1009883a 	mov	r4,r2
   439f4:	0045c6c0 	call	45c6c <__mulsf3>
   439f8:	1029883a 	mov	r20,r2
   439fc:	102d883a 	mov	r22,r2
   43a00:	008fa6b4 	movhi	r2,16026
   43a04:	10a66644 	addi	r2,r2,-26215
   43a08:	143fbb0e 	bge	r2,r16,438f8 <_exit+0xfffa38ec>
   43a0c:	008fd234 	movhi	r2,16200
   43a10:	14002716 	blt	r2,r16,43ab0 <__kernel_cosf+0x2b8>
   43a14:	00bfc034 	movhi	r2,65280
   43a18:	80a1883a 	add	r16,r16,r2
   43a1c:	800b883a 	mov	r5,r16
   43a20:	010fe034 	movhi	r4,16256
   43a24:	004609c0 	call	4609c <__subsf3>
   43a28:	102b883a 	mov	r21,r2
   43a2c:	8809883a 	mov	r4,r17
   43a30:	014fc034 	movhi	r5,16128
   43a34:	0045c6c0 	call	45c6c <__mulsf3>
   43a38:	800b883a 	mov	r5,r16
   43a3c:	1009883a 	mov	r4,r2
   43a40:	004609c0 	call	4609c <__subsf3>
   43a44:	8809883a 	mov	r4,r17
   43a48:	a00b883a 	mov	r5,r20
   43a4c:	1021883a 	mov	r16,r2
   43a50:	0045c6c0 	call	45c6c <__mulsf3>
   43a54:	980b883a 	mov	r5,r19
   43a58:	9009883a 	mov	r4,r18
   43a5c:	1023883a 	mov	r17,r2
   43a60:	0045c6c0 	call	45c6c <__mulsf3>
   43a64:	100b883a 	mov	r5,r2
   43a68:	8809883a 	mov	r4,r17
   43a6c:	004609c0 	call	4609c <__subsf3>
   43a70:	100b883a 	mov	r5,r2
   43a74:	8009883a 	mov	r4,r16
   43a78:	004609c0 	call	4609c <__subsf3>
   43a7c:	100b883a 	mov	r5,r2
   43a80:	a809883a 	mov	r4,r21
   43a84:	004609c0 	call	4609c <__subsf3>
   43a88:	dfc00717 	ldw	ra,28(sp)
   43a8c:	dd800617 	ldw	r22,24(sp)
   43a90:	dd400517 	ldw	r21,20(sp)
   43a94:	dd000417 	ldw	r20,16(sp)
   43a98:	dcc00317 	ldw	r19,12(sp)
   43a9c:	dc800217 	ldw	r18,8(sp)
   43aa0:	dc400117 	ldw	r17,4(sp)
   43aa4:	dc000017 	ldw	r16,0(sp)
   43aa8:	dec00804 	addi	sp,sp,32
   43aac:	f800283a 	ret
   43ab0:	054fce34 	movhi	r21,16184
   43ab4:	040fa434 	movhi	r16,16016
   43ab8:	003fdc06 	br	43a2c <_exit+0xfffa3a20>
   43abc:	008fe034 	movhi	r2,16256
   43ac0:	003ff106 	br	43a88 <_exit+0xfffa3a7c>

00043ac4 <__kernel_rem_pio2f>:
   43ac4:	deff9804 	addi	sp,sp,-416
   43ac8:	d8c06817 	ldw	r3,416(sp)
   43acc:	ddc06515 	stw	r23,404(sp)
   43ad0:	dd806415 	stw	r22,400(sp)
   43ad4:	18c5883a 	add	r2,r3,r3
   43ad8:	00c001b4 	movhi	r3,6
   43adc:	18c01d04 	addi	r3,r3,116
   43ae0:	1085883a 	add	r2,r2,r2
   43ae4:	1885883a 	add	r2,r3,r2
   43ae8:	dfc06715 	stw	ra,412(sp)
   43aec:	df006615 	stw	fp,408(sp)
   43af0:	dd406315 	stw	r21,396(sp)
   43af4:	dd006215 	stw	r20,392(sp)
   43af8:	dcc06115 	stw	r19,388(sp)
   43afc:	dc806015 	stw	r18,384(sp)
   43b00:	dc405f15 	stw	r17,380(sp)
   43b04:	dc005e15 	stw	r16,376(sp)
   43b08:	d9c05615 	stw	r7,344(sp)
   43b0c:	30ffff44 	addi	r3,r6,-3
   43b10:	d9005115 	stw	r4,324(sp)
   43b14:	d9405415 	stw	r5,336(sp)
   43b18:	15800017 	ldw	r22,0(r2)
   43b1c:	3dffffc4 	addi	r23,r7,-1
   43b20:	1802a716 	blt	r3,zero,445c0 <__kernel_rem_pio2f+0xafc>
   43b24:	1807d0fa 	srai	r3,r3,3
   43b28:	d8c05515 	stw	r3,340(sp)
   43b2c:	1802a216 	blt	r3,zero,445b8 <__kernel_rem_pio2f+0xaf4>
   43b30:	da005517 	ldw	r8,340(sp)
   43b34:	b5c5883a 	add	r2,r22,r23
   43b38:	42000044 	addi	r8,r8,1
   43b3c:	400690fa 	slli	r3,r8,3
   43b40:	da005815 	stw	r8,352(sp)
   43b44:	da005517 	ldw	r8,340(sp)
   43b48:	30c7c83a 	sub	r3,r6,r3
   43b4c:	d8c05215 	stw	r3,328(sp)
   43b50:	45e3c83a 	sub	r17,r8,r23
   43b54:	10000f16 	blt	r2,zero,43b94 <__kernel_rem_pio2f+0xd0>
   43b58:	d8c06917 	ldw	r3,420(sp)
   43b5c:	8c65883a 	add	r18,r17,r17
   43b60:	94a5883a 	add	r18,r18,r18
   43b64:	1445883a 	add	r2,r2,r17
   43b68:	dcc02804 	addi	r19,sp,160
   43b6c:	1ca5883a 	add	r18,r3,r18
   43b70:	14000044 	addi	r16,r2,1
   43b74:	88011f16 	blt	r17,zero,43ff4 <__kernel_rem_pio2f+0x530>
   43b78:	91000017 	ldw	r4,0(r18)
   43b7c:	00465f00 	call	465f0 <__floatsisf>
   43b80:	98800015 	stw	r2,0(r19)
   43b84:	8c400044 	addi	r17,r17,1
   43b88:	9cc00104 	addi	r19,r19,4
   43b8c:	94800104 	addi	r18,r18,4
   43b90:	8c3ff81e 	bne	r17,r16,43b74 <_exit+0xfffa3b68>
   43b94:	b0002116 	blt	r22,zero,43c1c <__kernel_rem_pio2f+0x158>
   43b98:	d9805117 	ldw	r6,324(sp)
   43b9c:	bde3883a 	add	r17,r23,r23
   43ba0:	b4c00044 	addi	r19,r22,1
   43ba4:	8c63883a 	add	r17,r17,r17
   43ba8:	9ce7883a 	add	r19,r19,r19
   43bac:	8c000104 	addi	r16,r17,4
   43bb0:	9ce7883a 	add	r19,r19,r19
   43bb4:	d9002804 	addi	r4,sp,160
   43bb8:	d825883a 	mov	r18,sp
   43bbc:	2463883a 	add	r17,r4,r17
   43bc0:	dce7883a 	add	r19,sp,r19
   43bc4:	3421883a 	add	r16,r6,r16
   43bc8:	dd805315 	stw	r22,332(sp)
   43bcc:	3039883a 	mov	fp,r6
   43bd0:	b8012616 	blt	r23,zero,4406c <__kernel_rem_pio2f+0x5a8>
   43bd4:	e029883a 	mov	r20,fp
   43bd8:	882b883a 	mov	r21,r17
   43bdc:	002d883a 	mov	r22,zero
   43be0:	a9400017 	ldw	r5,0(r21)
   43be4:	a1000017 	ldw	r4,0(r20)
   43be8:	a5000104 	addi	r20,r20,4
   43bec:	ad7fff04 	addi	r21,r21,-4
   43bf0:	0045c6c0 	call	45c6c <__mulsf3>
   43bf4:	b009883a 	mov	r4,r22
   43bf8:	100b883a 	mov	r5,r2
   43bfc:	00451680 	call	45168 <__addsf3>
   43c00:	102d883a 	mov	r22,r2
   43c04:	a43ff61e 	bne	r20,r16,43be0 <_exit+0xfffa3bd4>
   43c08:	95800015 	stw	r22,0(r18)
   43c0c:	94800104 	addi	r18,r18,4
   43c10:	8c400104 	addi	r17,r17,4
   43c14:	94ffee1e 	bne	r18,r19,43bd0 <_exit+0xfffa3bc4>
   43c18:	dd805317 	ldw	r22,332(sp)
   43c1c:	00900034 	movhi	r2,16384
   43c20:	da005617 	ldw	r8,344(sp)
   43c24:	10bfff84 	addi	r2,r2,-2
   43c28:	b085883a 	add	r2,r22,r2
   43c2c:	b0ffffc4 	addi	r3,r22,-1
   43c30:	1085883a 	add	r2,r2,r2
   43c34:	1085883a 	add	r2,r2,r2
   43c38:	4221883a 	add	r16,r8,r8
   43c3c:	18c7883a 	add	r3,r3,r3
   43c40:	da005117 	ldw	r8,324(sp)
   43c44:	d9803c04 	addi	r6,sp,240
   43c48:	308d883a 	add	r6,r6,r2
   43c4c:	18c7883a 	add	r3,r3,r3
   43c50:	8421883a 	add	r16,r16,r16
   43c54:	11000104 	addi	r4,r2,4
   43c58:	d8c7883a 	add	r3,sp,r3
   43c5c:	d9805915 	stw	r6,356(sp)
   43c60:	d9803c04 	addi	r6,sp,240
   43c64:	4421883a 	add	r16,r8,r16
   43c68:	310d883a 	add	r6,r6,r4
   43c6c:	da3fff04 	addi	r8,sp,-4
   43c70:	18c03c04 	addi	r3,r3,240
   43c74:	d9805a15 	stw	r6,360(sp)
   43c78:	b023883a 	mov	r17,r22
   43c7c:	da005015 	stw	r8,320(sp)
   43c80:	d8c05b15 	stw	r3,364(sp)
   43c84:	dd805715 	stw	r22,348(sp)
   43c88:	8c6b883a 	add	r21,r17,r17
   43c8c:	ad45883a 	add	r2,r21,r21
   43c90:	d885883a 	add	r2,sp,r2
   43c94:	15000017 	ldw	r20,0(r2)
   43c98:	0440200e 	bge	zero,r17,43d1c <__kernel_rem_pio2f+0x258>
   43c9c:	00900034 	movhi	r2,16384
   43ca0:	10bfffc4 	addi	r2,r2,-1
   43ca4:	88a7883a 	add	r19,r17,r2
   43ca8:	9ce7883a 	add	r19,r19,r19
   43cac:	9ce7883a 	add	r19,r19,r19
   43cb0:	dc803c04 	addi	r18,sp,240
   43cb4:	dce7883a 	add	r19,sp,r19
   43cb8:	014ee034 	movhi	r5,15232
   43cbc:	a009883a 	mov	r4,r20
   43cc0:	0045c6c0 	call	45c6c <__mulsf3>
   43cc4:	1009883a 	mov	r4,r2
   43cc8:	00465800 	call	46580 <__fixsfsi>
   43ccc:	1009883a 	mov	r4,r2
   43cd0:	00465f00 	call	465f0 <__floatsisf>
   43cd4:	0150e034 	movhi	r5,17280
   43cd8:	1009883a 	mov	r4,r2
   43cdc:	102d883a 	mov	r22,r2
   43ce0:	0045c6c0 	call	45c6c <__mulsf3>
   43ce4:	100b883a 	mov	r5,r2
   43ce8:	a009883a 	mov	r4,r20
   43cec:	004609c0 	call	4609c <__subsf3>
   43cf0:	1009883a 	mov	r4,r2
   43cf4:	00465800 	call	46580 <__fixsfsi>
   43cf8:	99400017 	ldw	r5,0(r19)
   43cfc:	90800015 	stw	r2,0(r18)
   43d00:	b009883a 	mov	r4,r22
   43d04:	00451680 	call	45168 <__addsf3>
   43d08:	d8c05017 	ldw	r3,320(sp)
   43d0c:	9cffff04 	addi	r19,r19,-4
   43d10:	1029883a 	mov	r20,r2
   43d14:	94800104 	addi	r18,r18,4
   43d18:	98ffe71e 	bne	r19,r3,43cb8 <_exit+0xfffa3cac>
   43d1c:	d9405217 	ldw	r5,328(sp)
   43d20:	a009883a 	mov	r4,r20
   43d24:	0044e300 	call	44e30 <scalbnf>
   43d28:	014f8034 	movhi	r5,15872
   43d2c:	1009883a 	mov	r4,r2
   43d30:	1025883a 	mov	r18,r2
   43d34:	0045c6c0 	call	45c6c <__mulsf3>
   43d38:	1009883a 	mov	r4,r2
   43d3c:	0044d2c0 	call	44d2c <floorf>
   43d40:	01504034 	movhi	r5,16640
   43d44:	1009883a 	mov	r4,r2
   43d48:	0045c6c0 	call	45c6c <__mulsf3>
   43d4c:	100b883a 	mov	r5,r2
   43d50:	9009883a 	mov	r4,r18
   43d54:	004609c0 	call	4609c <__subsf3>
   43d58:	1009883a 	mov	r4,r2
   43d5c:	1025883a 	mov	r18,r2
   43d60:	00465800 	call	46580 <__fixsfsi>
   43d64:	1009883a 	mov	r4,r2
   43d68:	1029883a 	mov	r20,r2
   43d6c:	00465f00 	call	465f0 <__floatsisf>
   43d70:	100b883a 	mov	r5,r2
   43d74:	9009883a 	mov	r4,r18
   43d78:	004609c0 	call	4609c <__subsf3>
   43d7c:	d9805217 	ldw	r6,328(sp)
   43d80:	1013883a 	mov	r9,r2
   43d84:	1011883a 	mov	r8,r2
   43d88:	01809c0e 	bge	zero,r6,43ffc <__kernel_rem_pio2f+0x538>
   43d8c:	88bfffc4 	addi	r2,r17,-1
   43d90:	1085883a 	add	r2,r2,r2
   43d94:	1085883a 	add	r2,r2,r2
   43d98:	d885883a 	add	r2,sp,r2
   43d9c:	10803c04 	addi	r2,r2,240
   43da0:	11000017 	ldw	r4,0(r2)
   43da4:	00c00204 	movi	r3,8
   43da8:	1987c83a 	sub	r3,r3,r6
   43dac:	20cbd83a 	sra	r5,r4,r3
   43db0:	04c001c4 	movi	r19,7
   43db4:	99a7c83a 	sub	r19,r19,r6
   43db8:	28c6983a 	sll	r3,r5,r3
   43dbc:	a169883a 	add	r20,r20,r5
   43dc0:	20c7c83a 	sub	r3,r4,r3
   43dc4:	1ce7d83a 	sra	r19,r3,r19
   43dc8:	10c00015 	stw	r3,0(r2)
   43dcc:	04c0270e 	bge	zero,r19,43e6c <__kernel_rem_pio2f+0x3a8>
   43dd0:	a5000044 	addi	r20,r20,1
   43dd4:	0441d10e 	bge	zero,r17,4451c <__kernel_rem_pio2f+0xa58>
   43dd8:	d8803c04 	addi	r2,sp,240
   43ddc:	0009883a 	mov	r4,zero
   43de0:	0025883a 	mov	r18,zero
   43de4:	01c03fc4 	movi	r7,255
   43de8:	01804004 	movi	r6,256
   43dec:	00000706 	br	43e0c <__kernel_rem_pio2f+0x348>
   43df0:	30cbc83a 	sub	r5,r6,r3
   43df4:	18000226 	beq	r3,zero,43e00 <__kernel_rem_pio2f+0x33c>
   43df8:	11400015 	stw	r5,0(r2)
   43dfc:	04800044 	movi	r18,1
   43e00:	21000044 	addi	r4,r4,1
   43e04:	10800104 	addi	r2,r2,4
   43e08:	2440080e 	bge	r4,r17,43e2c <__kernel_rem_pio2f+0x368>
   43e0c:	10c00017 	ldw	r3,0(r2)
   43e10:	903ff726 	beq	r18,zero,43df0 <_exit+0xfffa3de4>
   43e14:	38c7c83a 	sub	r3,r7,r3
   43e18:	10c00015 	stw	r3,0(r2)
   43e1c:	21000044 	addi	r4,r4,1
   43e20:	04800044 	movi	r18,1
   43e24:	10800104 	addi	r2,r2,4
   43e28:	247ff816 	blt	r4,r17,43e0c <_exit+0xfffa3e00>
   43e2c:	d9805217 	ldw	r6,328(sp)
   43e30:	01800c0e 	bge	zero,r6,43e64 <__kernel_rem_pio2f+0x3a0>
   43e34:	00800044 	movi	r2,1
   43e38:	30807926 	beq	r6,r2,44020 <__kernel_rem_pio2f+0x55c>
   43e3c:	00800084 	movi	r2,2
   43e40:	3080081e 	bne	r6,r2,43e64 <__kernel_rem_pio2f+0x3a0>
   43e44:	88bfffc4 	addi	r2,r17,-1
   43e48:	1085883a 	add	r2,r2,r2
   43e4c:	1085883a 	add	r2,r2,r2
   43e50:	d885883a 	add	r2,sp,r2
   43e54:	10803c04 	addi	r2,r2,240
   43e58:	10c00017 	ldw	r3,0(r2)
   43e5c:	18c00fcc 	andi	r3,r3,63
   43e60:	10c00015 	stw	r3,0(r2)
   43e64:	00800084 	movi	r2,2
   43e68:	98805326 	beq	r19,r2,43fb8 <__kernel_rem_pio2f+0x4f4>
   43e6c:	4009883a 	mov	r4,r8
   43e70:	000b883a 	mov	r5,zero
   43e74:	da005d15 	stw	r8,372(sp)
   43e78:	0045a700 	call	45a70 <__eqsf2>
   43e7c:	da005d17 	ldw	r8,372(sp)
   43e80:	10017a1e 	bne	r2,zero,4446c <__kernel_rem_pio2f+0x9a8>
   43e84:	da005717 	ldw	r8,348(sp)
   43e88:	8cbfffc4 	addi	r18,r17,-1
   43e8c:	92000e16 	blt	r18,r8,43ec8 <__kernel_rem_pio2f+0x404>
   43e90:	00d00034 	movhi	r3,16384
   43e94:	18ffffc4 	addi	r3,r3,-1
   43e98:	88c5883a 	add	r2,r17,r3
   43e9c:	1085883a 	add	r2,r2,r2
   43ea0:	d9405a17 	ldw	r5,360(sp)
   43ea4:	1085883a 	add	r2,r2,r2
   43ea8:	d9003c04 	addi	r4,sp,240
   43eac:	2085883a 	add	r2,r4,r2
   43eb0:	0007883a 	mov	r3,zero
   43eb4:	11000017 	ldw	r4,0(r2)
   43eb8:	10bfff04 	addi	r2,r2,-4
   43ebc:	1906b03a 	or	r3,r3,r4
   43ec0:	117ffc1e 	bne	r2,r5,43eb4 <_exit+0xfffa3ea8>
   43ec4:	18006f1e 	bne	r3,zero,44084 <__kernel_rem_pio2f+0x5c0>
   43ec8:	d9805b17 	ldw	r6,364(sp)
   43ecc:	30800017 	ldw	r2,0(r6)
   43ed0:	1001941e 	bne	r2,zero,44524 <__kernel_rem_pio2f+0xa60>
   43ed4:	d8805917 	ldw	r2,356(sp)
   43ed8:	05000044 	movi	r20,1
   43edc:	10bfff04 	addi	r2,r2,-4
   43ee0:	10c00117 	ldw	r3,4(r2)
   43ee4:	a5000044 	addi	r20,r20,1
   43ee8:	183ffc26 	beq	r3,zero,43edc <_exit+0xfffa3ed0>
   43eec:	8d29883a 	add	r20,r17,r20
   43ef0:	88800044 	addi	r2,r17,1
   43ef4:	dd005315 	stw	r20,332(sp)
   43ef8:	a0802b16 	blt	r20,r2,43fa8 <__kernel_rem_pio2f+0x4e4>
   43efc:	da005517 	ldw	r8,340(sp)
   43f00:	d8c05617 	ldw	r3,344(sp)
   43f04:	d9805817 	ldw	r6,352(sp)
   43f08:	40a5883a 	add	r18,r8,r2
   43f0c:	da005317 	ldw	r8,332(sp)
   43f10:	1c63883a 	add	r17,r3,r17
   43f14:	d8c06917 	ldw	r3,420(sp)
   43f18:	322b883a 	add	r21,r6,r8
   43f1c:	94a5883a 	add	r18,r18,r18
   43f20:	8c63883a 	add	r17,r17,r17
   43f24:	1085883a 	add	r2,r2,r2
   43f28:	ad6b883a 	add	r21,r21,r21
   43f2c:	94a5883a 	add	r18,r18,r18
   43f30:	8c63883a 	add	r17,r17,r17
   43f34:	1085883a 	add	r2,r2,r2
   43f38:	ad6b883a 	add	r21,r21,r21
   43f3c:	d9002804 	addi	r4,sp,160
   43f40:	1ca5883a 	add	r18,r3,r18
   43f44:	2463883a 	add	r17,r4,r17
   43f48:	d8a7883a 	add	r19,sp,r2
   43f4c:	1d6b883a 	add	r21,r3,r21
   43f50:	91000017 	ldw	r4,0(r18)
   43f54:	00465f00 	call	465f0 <__floatsisf>
   43f58:	88800015 	stw	r2,0(r17)
   43f5c:	b8001416 	blt	r23,zero,43fb0 <__kernel_rem_pio2f+0x4ec>
   43f60:	dd005117 	ldw	r20,324(sp)
   43f64:	882d883a 	mov	r22,r17
   43f68:	0039883a 	mov	fp,zero
   43f6c:	b1400017 	ldw	r5,0(r22)
   43f70:	a1000017 	ldw	r4,0(r20)
   43f74:	a5000104 	addi	r20,r20,4
   43f78:	b5bfff04 	addi	r22,r22,-4
   43f7c:	0045c6c0 	call	45c6c <__mulsf3>
   43f80:	e009883a 	mov	r4,fp
   43f84:	100b883a 	mov	r5,r2
   43f88:	00451680 	call	45168 <__addsf3>
   43f8c:	1039883a 	mov	fp,r2
   43f90:	a43ff61e 	bne	r20,r16,43f6c <_exit+0xfffa3f60>
   43f94:	9f000015 	stw	fp,0(r19)
   43f98:	94800104 	addi	r18,r18,4
   43f9c:	8c400104 	addi	r17,r17,4
   43fa0:	9cc00104 	addi	r19,r19,4
   43fa4:	957fea1e 	bne	r18,r21,43f50 <_exit+0xfffa3f44>
   43fa8:	dc405317 	ldw	r17,332(sp)
   43fac:	003f3606 	br	43c88 <_exit+0xfffa3c7c>
   43fb0:	0039883a 	mov	fp,zero
   43fb4:	003ff706 	br	43f94 <_exit+0xfffa3f88>
   43fb8:	480b883a 	mov	r5,r9
   43fbc:	010fe034 	movhi	r4,16256
   43fc0:	004609c0 	call	4609c <__subsf3>
   43fc4:	1011883a 	mov	r8,r2
   43fc8:	903fa826 	beq	r18,zero,43e6c <_exit+0xfffa3e60>
   43fcc:	d9405217 	ldw	r5,328(sp)
   43fd0:	010fe034 	movhi	r4,16256
   43fd4:	d8805c15 	stw	r2,368(sp)
   43fd8:	0044e300 	call	44e30 <scalbnf>
   43fdc:	d8c05c17 	ldw	r3,368(sp)
   43fe0:	100b883a 	mov	r5,r2
   43fe4:	1809883a 	mov	r4,r3
   43fe8:	004609c0 	call	4609c <__subsf3>
   43fec:	1011883a 	mov	r8,r2
   43ff0:	003f9e06 	br	43e6c <_exit+0xfffa3e60>
   43ff4:	0005883a 	mov	r2,zero
   43ff8:	003ee106 	br	43b80 <_exit+0xfffa3b74>
   43ffc:	d8c05217 	ldw	r3,328(sp)
   44000:	1800101e 	bne	r3,zero,44044 <__kernel_rem_pio2f+0x580>
   44004:	88bfffc4 	addi	r2,r17,-1
   44008:	1085883a 	add	r2,r2,r2
   4400c:	1085883a 	add	r2,r2,r2
   44010:	d885883a 	add	r2,sp,r2
   44014:	14c03c17 	ldw	r19,240(r2)
   44018:	9827d23a 	srai	r19,r19,8
   4401c:	003f6b06 	br	43dcc <_exit+0xfffa3dc0>
   44020:	88bfffc4 	addi	r2,r17,-1
   44024:	1085883a 	add	r2,r2,r2
   44028:	1085883a 	add	r2,r2,r2
   4402c:	d885883a 	add	r2,sp,r2
   44030:	10803c04 	addi	r2,r2,240
   44034:	10c00017 	ldw	r3,0(r2)
   44038:	18c01fcc 	andi	r3,r3,127
   4403c:	10c00015 	stw	r3,0(r2)
   44040:	003f8806 	br	43e64 <_exit+0xfffa3e58>
   44044:	014fc034 	movhi	r5,16128
   44048:	1009883a 	mov	r4,r2
   4404c:	d8805d15 	stw	r2,372(sp)
   44050:	d8805c15 	stw	r2,368(sp)
   44054:	0045ae80 	call	45ae8 <__gesf2>
   44058:	da005d17 	ldw	r8,372(sp)
   4405c:	da405c17 	ldw	r9,368(sp)
   44060:	10007d0e 	bge	r2,zero,44258 <__kernel_rem_pio2f+0x794>
   44064:	0027883a 	mov	r19,zero
   44068:	003f8006 	br	43e6c <_exit+0xfffa3e60>
   4406c:	002d883a 	mov	r22,zero
   44070:	95800015 	stw	r22,0(r18)
   44074:	94800104 	addi	r18,r18,4
   44078:	8c400104 	addi	r17,r17,4
   4407c:	94fed41e 	bne	r18,r19,43bd0 <_exit+0xfffa3bc4>
   44080:	003ee506 	br	43c18 <_exit+0xfffa3c0c>
   44084:	9485883a 	add	r2,r18,r18
   44088:	d9805217 	ldw	r6,328(sp)
   4408c:	1085883a 	add	r2,r2,r2
   44090:	d885883a 	add	r2,sp,r2
   44094:	10803c17 	ldw	r2,240(r2)
   44098:	31bffe04 	addi	r6,r6,-8
   4409c:	dd005315 	stw	r20,332(sp)
   440a0:	d9805215 	stw	r6,328(sp)
   440a4:	dd805717 	ldw	r22,348(sp)
   440a8:	10000e1e 	bne	r2,zero,440e4 <__kernel_rem_pio2f+0x620>
   440ac:	00900034 	movhi	r2,16384
   440b0:	10bfffc4 	addi	r2,r2,-1
   440b4:	9085883a 	add	r2,r18,r2
   440b8:	1085883a 	add	r2,r2,r2
   440bc:	1085883a 	add	r2,r2,r2
   440c0:	da003c04 	addi	r8,sp,240
   440c4:	4085883a 	add	r2,r8,r2
   440c8:	3007883a 	mov	r3,r6
   440cc:	10bfff04 	addi	r2,r2,-4
   440d0:	11000117 	ldw	r4,4(r2)
   440d4:	94bfffc4 	addi	r18,r18,-1
   440d8:	18fffe04 	addi	r3,r3,-8
   440dc:	203ffb26 	beq	r4,zero,440cc <_exit+0xfffa40c0>
   440e0:	d8c05215 	stw	r3,328(sp)
   440e4:	d9405217 	ldw	r5,328(sp)
   440e8:	010fe034 	movhi	r4,16256
   440ec:	0044e300 	call	44e30 <scalbnf>
   440f0:	102f883a 	mov	r23,r2
   440f4:	90011316 	blt	r18,zero,44544 <__kernel_rem_pio2f+0xa80>
   440f8:	9491883a 	add	r8,r18,r18
   440fc:	4207883a 	add	r3,r8,r8
   44100:	d8e3883a 	add	r17,sp,r3
   44104:	d8803c04 	addi	r2,sp,240
   44108:	da005115 	stw	r8,324(sp)
   4410c:	10f9883a 	add	fp,r2,r3
   44110:	dc003b04 	addi	r16,sp,236
   44114:	882b883a 	mov	r21,r17
   44118:	e1000017 	ldw	r4,0(fp)
   4411c:	ad7fff04 	addi	r21,r21,-4
   44120:	e73fff04 	addi	fp,fp,-4
   44124:	00465f00 	call	465f0 <__floatsisf>
   44128:	b80b883a 	mov	r5,r23
   4412c:	1009883a 	mov	r4,r2
   44130:	0045c6c0 	call	45c6c <__mulsf3>
   44134:	b809883a 	mov	r4,r23
   44138:	014ee034 	movhi	r5,15232
   4413c:	a8800115 	stw	r2,4(r21)
   44140:	0045c6c0 	call	45c6c <__mulsf3>
   44144:	102f883a 	mov	r23,r2
   44148:	e43ff31e 	bne	fp,r16,44118 <_exit+0xfffa410c>
   4414c:	d9bfff04 	addi	r6,sp,-4
   44150:	d9805015 	stw	r6,320(sp)
   44154:	002b883a 	mov	r21,zero
   44158:	0039883a 	mov	fp,zero
   4415c:	b0001316 	blt	r22,zero,441ac <__kernel_rem_pio2f+0x6e8>
   44160:	05c001b4 	movhi	r23,6
   44164:	bdc01304 	addi	r23,r23,76
   44168:	8829883a 	mov	r20,r17
   4416c:	010ff274 	movhi	r4,16329
   44170:	0039883a 	mov	fp,zero
   44174:	0021883a 	mov	r16,zero
   44178:	00000406 	br	4418c <__kernel_rem_pio2f+0x6c8>
   4417c:	a5000104 	addi	r20,r20,4
   44180:	ac000a16 	blt	r21,r16,441ac <__kernel_rem_pio2f+0x6e8>
   44184:	b9000017 	ldw	r4,0(r23)
   44188:	bdc00104 	addi	r23,r23,4
   4418c:	a1400017 	ldw	r5,0(r20)
   44190:	84000044 	addi	r16,r16,1
   44194:	0045c6c0 	call	45c6c <__mulsf3>
   44198:	e009883a 	mov	r4,fp
   4419c:	100b883a 	mov	r5,r2
   441a0:	00451680 	call	45168 <__addsf3>
   441a4:	1039883a 	mov	fp,r2
   441a8:	b43ff40e 	bge	r22,r16,4417c <_exit+0xfffa4170>
   441ac:	ad45883a 	add	r2,r21,r21
   441b0:	1085883a 	add	r2,r2,r2
   441b4:	d8c05017 	ldw	r3,320(sp)
   441b8:	d885883a 	add	r2,sp,r2
   441bc:	17001415 	stw	fp,80(r2)
   441c0:	8c7fff04 	addi	r17,r17,-4
   441c4:	ad400044 	addi	r21,r21,1
   441c8:	1c7fe31e 	bne	r3,r17,44158 <_exit+0xfffa414c>
   441cc:	d8c06817 	ldw	r3,416(sp)
   441d0:	00800084 	movi	r2,2
   441d4:	10c04516 	blt	r2,r3,442ec <__kernel_rem_pio2f+0x828>
   441d8:	00c02316 	blt	zero,r3,44268 <__kernel_rem_pio2f+0x7a4>
   441dc:	1800101e 	bne	r3,zero,44220 <__kernel_rem_pio2f+0x75c>
   441e0:	d9805117 	ldw	r6,324(sp)
   441e4:	da001404 	addi	r8,sp,80
   441e8:	0005883a 	mov	r2,zero
   441ec:	31a1883a 	add	r16,r6,r6
   441f0:	4421883a 	add	r16,r8,r16
   441f4:	047fffc4 	movi	r17,-1
   441f8:	81400017 	ldw	r5,0(r16)
   441fc:	1009883a 	mov	r4,r2
   44200:	94bfffc4 	addi	r18,r18,-1
   44204:	00451680 	call	45168 <__addsf3>
   44208:	843fff04 	addi	r16,r16,-4
   4420c:	947ffa1e 	bne	r18,r17,441f8 <_exit+0xfffa41ec>
   44210:	98000126 	beq	r19,zero,44218 <__kernel_rem_pio2f+0x754>
   44214:	10a0003c 	xorhi	r2,r2,32768
   44218:	d8c05417 	ldw	r3,336(sp)
   4421c:	18800015 	stw	r2,0(r3)
   44220:	da005317 	ldw	r8,332(sp)
   44224:	408001cc 	andi	r2,r8,7
   44228:	dfc06717 	ldw	ra,412(sp)
   4422c:	df006617 	ldw	fp,408(sp)
   44230:	ddc06517 	ldw	r23,404(sp)
   44234:	dd806417 	ldw	r22,400(sp)
   44238:	dd406317 	ldw	r21,396(sp)
   4423c:	dd006217 	ldw	r20,392(sp)
   44240:	dcc06117 	ldw	r19,388(sp)
   44244:	dc806017 	ldw	r18,384(sp)
   44248:	dc405f17 	ldw	r17,380(sp)
   4424c:	dc005e17 	ldw	r16,376(sp)
   44250:	dec06804 	addi	sp,sp,416
   44254:	f800283a 	ret
   44258:	a5000044 	addi	r20,r20,1
   4425c:	0440b30e 	bge	zero,r17,4452c <__kernel_rem_pio2f+0xa68>
   44260:	04c00084 	movi	r19,2
   44264:	003edc06 	br	43dd8 <_exit+0xfffa3dcc>
   44268:	d9805117 	ldw	r6,324(sp)
   4426c:	da001404 	addi	r8,sp,80
   44270:	dc401304 	addi	r17,sp,76
   44274:	31a1883a 	add	r16,r6,r6
   44278:	4421883a 	add	r16,r8,r16
   4427c:	0005883a 	mov	r2,zero
   44280:	81400017 	ldw	r5,0(r16)
   44284:	1009883a 	mov	r4,r2
   44288:	843fff04 	addi	r16,r16,-4
   4428c:	00451680 	call	45168 <__addsf3>
   44290:	847ffb1e 	bne	r16,r17,44280 <_exit+0xfffa4274>
   44294:	d9001417 	ldw	r4,80(sp)
   44298:	98006b26 	beq	r19,zero,44448 <__kernel_rem_pio2f+0x984>
   4429c:	d9805417 	ldw	r6,336(sp)
   442a0:	10e0003c 	xorhi	r3,r2,32768
   442a4:	100b883a 	mov	r5,r2
   442a8:	30c00015 	stw	r3,0(r6)
   442ac:	004609c0 	call	4609c <__subsf3>
   442b0:	1009883a 	mov	r4,r2
   442b4:	0480090e 	bge	zero,r18,442dc <__kernel_rem_pio2f+0x818>
   442b8:	dc401504 	addi	r17,sp,84
   442bc:	04000044 	movi	r16,1
   442c0:	89400017 	ldw	r5,0(r17)
   442c4:	84000044 	addi	r16,r16,1
   442c8:	8c400104 	addi	r17,r17,4
   442cc:	00451680 	call	45168 <__addsf3>
   442d0:	1009883a 	mov	r4,r2
   442d4:	943ffa0e 	bge	r18,r16,442c0 <_exit+0xfffa42b4>
   442d8:	98000126 	beq	r19,zero,442e0 <__kernel_rem_pio2f+0x81c>
   442dc:	20a0003c 	xorhi	r2,r4,32768
   442e0:	da005417 	ldw	r8,336(sp)
   442e4:	40800115 	stw	r2,4(r8)
   442e8:	003fcd06 	br	44220 <_exit+0xfffa4214>
   442ec:	da006817 	ldw	r8,416(sp)
   442f0:	008000c4 	movi	r2,3
   442f4:	40bfca1e 	bne	r8,r2,44220 <_exit+0xfffa4214>
   442f8:	0480a60e 	bge	zero,r18,44594 <__kernel_rem_pio2f+0xad0>
   442fc:	d8c05117 	ldw	r3,324(sp)
   44300:	04500034 	movhi	r17,16384
   44304:	8c7fffc4 	addi	r17,r17,-1
   44308:	18c5883a 	add	r2,r3,r3
   4430c:	9463883a 	add	r17,r18,r17
   44310:	d885883a 	add	r2,sp,r2
   44314:	8c63883a 	add	r17,r17,r17
   44318:	8c63883a 	add	r17,r17,r17
   4431c:	15c01417 	ldw	r23,80(r2)
   44320:	dd401404 	addi	r21,sp,80
   44324:	8d800104 	addi	r22,r17,4
   44328:	adad883a 	add	r22,r21,r22
   4432c:	ac63883a 	add	r17,r21,r17
   44330:	d9801304 	addi	r6,sp,76
   44334:	8d000017 	ldw	r20,0(r17)
   44338:	b80b883a 	mov	r5,r23
   4433c:	d9805c15 	stw	r6,368(sp)
   44340:	a009883a 	mov	r4,r20
   44344:	00451680 	call	45168 <__addsf3>
   44348:	100b883a 	mov	r5,r2
   4434c:	a009883a 	mov	r4,r20
   44350:	1021883a 	mov	r16,r2
   44354:	004609c0 	call	4609c <__subsf3>
   44358:	b80b883a 	mov	r5,r23
   4435c:	1009883a 	mov	r4,r2
   44360:	00451680 	call	45168 <__addsf3>
   44364:	d9805c17 	ldw	r6,368(sp)
   44368:	b0800015 	stw	r2,0(r22)
   4436c:	8c7fff04 	addi	r17,r17,-4
   44370:	8c000115 	stw	r16,4(r17)
   44374:	b5bfff04 	addi	r22,r22,-4
   44378:	802f883a 	mov	r23,r16
   4437c:	347fed1e 	bne	r6,r17,44334 <_exit+0xfffa4328>
   44380:	00800044 	movi	r2,1
   44384:	1480830e 	bge	r2,r18,44594 <__kernel_rem_pio2f+0xad0>
   44388:	d9805117 	ldw	r6,324(sp)
   4438c:	31a1883a 	add	r16,r6,r6
   44390:	dc05883a 	add	r2,sp,r16
   44394:	04100034 	movhi	r16,16384
   44398:	843fffc4 	addi	r16,r16,-1
   4439c:	9421883a 	add	r16,r18,r16
   443a0:	8421883a 	add	r16,r16,r16
   443a4:	8421883a 	add	r16,r16,r16
   443a8:	84400104 	addi	r17,r16,4
   443ac:	15801417 	ldw	r22,80(r2)
   443b0:	ac63883a 	add	r17,r21,r17
   443b4:	ac21883a 	add	r16,r21,r16
   443b8:	8825883a 	mov	r18,r17
   443bc:	85c00017 	ldw	r23,0(r16)
   443c0:	b009883a 	mov	r4,r22
   443c4:	843fff04 	addi	r16,r16,-4
   443c8:	b80b883a 	mov	r5,r23
   443cc:	00451680 	call	45168 <__addsf3>
   443d0:	100b883a 	mov	r5,r2
   443d4:	b809883a 	mov	r4,r23
   443d8:	1029883a 	mov	r20,r2
   443dc:	004609c0 	call	4609c <__subsf3>
   443e0:	b00b883a 	mov	r5,r22
   443e4:	1009883a 	mov	r4,r2
   443e8:	00451680 	call	45168 <__addsf3>
   443ec:	90800015 	stw	r2,0(r18)
   443f0:	85000115 	stw	r20,4(r16)
   443f4:	94bfff04 	addi	r18,r18,-4
   443f8:	a02d883a 	mov	r22,r20
   443fc:	ac3fef1e 	bne	r21,r16,443bc <_exit+0xfffa43b0>
   44400:	dc001504 	addi	r16,sp,84
   44404:	0005883a 	mov	r2,zero
   44408:	89400017 	ldw	r5,0(r17)
   4440c:	1009883a 	mov	r4,r2
   44410:	8c7fff04 	addi	r17,r17,-4
   44414:	00451680 	call	45168 <__addsf3>
   44418:	847ffb1e 	bne	r16,r17,44408 <_exit+0xfffa43fc>
   4441c:	98005f26 	beq	r19,zero,4459c <__kernel_rem_pio2f+0xad8>
   44420:	d8c01517 	ldw	r3,84(sp)
   44424:	d9001417 	ldw	r4,80(sp)
   44428:	d9805417 	ldw	r6,336(sp)
   4442c:	10a0003c 	xorhi	r2,r2,32768
   44430:	2120003c 	xorhi	r4,r4,32768
   44434:	18e0003c 	xorhi	r3,r3,32768
   44438:	31000015 	stw	r4,0(r6)
   4443c:	30c00115 	stw	r3,4(r6)
   44440:	30800215 	stw	r2,8(r6)
   44444:	003f7606 	br	44220 <_exit+0xfffa4214>
   44448:	d8c05417 	ldw	r3,336(sp)
   4444c:	100b883a 	mov	r5,r2
   44450:	18800015 	stw	r2,0(r3)
   44454:	004609c0 	call	4609c <__subsf3>
   44458:	1009883a 	mov	r4,r2
   4445c:	04bf9616 	blt	zero,r18,442b8 <_exit+0xfffa42ac>
   44460:	da005417 	ldw	r8,336(sp)
   44464:	40800115 	stw	r2,4(r8)
   44468:	003f6d06 	br	44220 <_exit+0xfffa4214>
   4446c:	d8c05217 	ldw	r3,328(sp)
   44470:	4009883a 	mov	r4,r8
   44474:	dd005315 	stw	r20,332(sp)
   44478:	00cbc83a 	sub	r5,zero,r3
   4447c:	dd805717 	ldw	r22,348(sp)
   44480:	0410e034 	movhi	r16,17280
   44484:	0044e300 	call	44e30 <scalbnf>
   44488:	800b883a 	mov	r5,r16
   4448c:	1009883a 	mov	r4,r2
   44490:	1025883a 	mov	r18,r2
   44494:	0045ae80 	call	45ae8 <__gesf2>
   44498:	10003116 	blt	r2,zero,44560 <__kernel_rem_pio2f+0xa9c>
   4449c:	014ee034 	movhi	r5,15232
   444a0:	9009883a 	mov	r4,r18
   444a4:	0045c6c0 	call	45c6c <__mulsf3>
   444a8:	1009883a 	mov	r4,r2
   444ac:	00465800 	call	46580 <__fixsfsi>
   444b0:	1009883a 	mov	r4,r2
   444b4:	00465f00 	call	465f0 <__floatsisf>
   444b8:	800b883a 	mov	r5,r16
   444bc:	1009883a 	mov	r4,r2
   444c0:	102f883a 	mov	r23,r2
   444c4:	0045c6c0 	call	45c6c <__mulsf3>
   444c8:	100b883a 	mov	r5,r2
   444cc:	9009883a 	mov	r4,r18
   444d0:	004609c0 	call	4609c <__subsf3>
   444d4:	1009883a 	mov	r4,r2
   444d8:	ad6b883a 	add	r21,r21,r21
   444dc:	00465800 	call	46580 <__fixsfsi>
   444e0:	dd6b883a 	add	r21,sp,r21
   444e4:	8c800044 	addi	r18,r17,1
   444e8:	ad403c04 	addi	r21,r21,240
   444ec:	9487883a 	add	r3,r18,r18
   444f0:	18c7883a 	add	r3,r3,r3
   444f4:	b809883a 	mov	r4,r23
   444f8:	a8800015 	stw	r2,0(r21)
   444fc:	d8e1883a 	add	r16,sp,r3
   44500:	00465800 	call	46580 <__fixsfsi>
   44504:	d9805217 	ldw	r6,328(sp)
   44508:	84003c04 	addi	r16,r16,240
   4450c:	80800015 	stw	r2,0(r16)
   44510:	31800204 	addi	r6,r6,8
   44514:	d9805215 	stw	r6,328(sp)
   44518:	003ef206 	br	440e4 <_exit+0xfffa40d8>
   4451c:	0025883a 	mov	r18,zero
   44520:	003e4206 	br	43e2c <_exit+0xfffa3e20>
   44524:	05000044 	movi	r20,1
   44528:	003e7006 	br	43eec <_exit+0xfffa3ee0>
   4452c:	480b883a 	mov	r5,r9
   44530:	010fe034 	movhi	r4,16256
   44534:	004609c0 	call	4609c <__subsf3>
   44538:	1011883a 	mov	r8,r2
   4453c:	04c00084 	movi	r19,2
   44540:	003e4a06 	br	43e6c <_exit+0xfffa3e60>
   44544:	da006817 	ldw	r8,416(sp)
   44548:	00800084 	movi	r2,2
   4454c:	12000e16 	blt	r2,r8,44588 <__kernel_rem_pio2f+0xac4>
   44550:	02000b16 	blt	zero,r8,44580 <__kernel_rem_pio2f+0xabc>
   44554:	403f321e 	bne	r8,zero,44220 <_exit+0xfffa4214>
   44558:	0005883a 	mov	r2,zero
   4455c:	003f2c06 	br	44210 <_exit+0xfffa4204>
   44560:	ad61883a 	add	r16,r21,r21
   44564:	dc21883a 	add	r16,sp,r16
   44568:	9009883a 	mov	r4,r18
   4456c:	84003c04 	addi	r16,r16,240
   44570:	00465800 	call	46580 <__fixsfsi>
   44574:	80800015 	stw	r2,0(r16)
   44578:	8825883a 	mov	r18,r17
   4457c:	003ed906 	br	440e4 <_exit+0xfffa40d8>
   44580:	0005883a 	mov	r2,zero
   44584:	003f4306 	br	44294 <_exit+0xfffa4288>
   44588:	d8c06817 	ldw	r3,416(sp)
   4458c:	008000c4 	movi	r2,3
   44590:	18bf231e 	bne	r3,r2,44220 <_exit+0xfffa4214>
   44594:	0005883a 	mov	r2,zero
   44598:	983fa11e 	bne	r19,zero,44420 <_exit+0xfffa4414>
   4459c:	da005417 	ldw	r8,336(sp)
   445a0:	d8c01517 	ldw	r3,84(sp)
   445a4:	40800215 	stw	r2,8(r8)
   445a8:	d8801417 	ldw	r2,80(sp)
   445ac:	40c00115 	stw	r3,4(r8)
   445b0:	40800015 	stw	r2,0(r8)
   445b4:	003f1a06 	br	44220 <_exit+0xfffa4214>
   445b8:	d8005515 	stw	zero,340(sp)
   445bc:	003d5c06 	br	43b30 <_exit+0xfffa3b24>
   445c0:	30c00104 	addi	r3,r6,4
   445c4:	003d5706 	br	43b24 <_exit+0xfffa3b18>

000445c8 <__kernel_sinf>:
   445c8:	00a00034 	movhi	r2,32768
   445cc:	defff904 	addi	sp,sp,-28
   445d0:	10bfffc4 	addi	r2,r2,-1
   445d4:	00cc8034 	movhi	r3,12800
   445d8:	dd000415 	stw	r20,16(sp)
   445dc:	dcc00315 	stw	r19,12(sp)
   445e0:	dc000015 	stw	r16,0(sp)
   445e4:	dfc00615 	stw	ra,24(sp)
   445e8:	dd400515 	stw	r21,20(sp)
   445ec:	dc800215 	stw	r18,8(sp)
   445f0:	dc400115 	stw	r17,4(sp)
   445f4:	1104703a 	and	r2,r2,r4
   445f8:	18ffffc4 	addi	r3,r3,-1
   445fc:	2021883a 	mov	r16,r4
   44600:	2827883a 	mov	r19,r5
   44604:	3029883a 	mov	r20,r6
   44608:	18800216 	blt	r3,r2,44614 <__kernel_sinf+0x4c>
   4460c:	00465800 	call	46580 <__fixsfsi>
   44610:	10005926 	beq	r2,zero,44778 <__kernel_sinf+0x1b0>
   44614:	800b883a 	mov	r5,r16
   44618:	8009883a 	mov	r4,r16
   4461c:	0045c6c0 	call	45c6c <__mulsf3>
   44620:	100b883a 	mov	r5,r2
   44624:	8009883a 	mov	r4,r16
   44628:	1023883a 	mov	r17,r2
   4462c:	0045c6c0 	call	45c6c <__mulsf3>
   44630:	014bcbf4 	movhi	r5,12079
   44634:	297274c4 	addi	r5,r5,-13869
   44638:	8809883a 	mov	r4,r17
   4463c:	1025883a 	mov	r18,r2
   44640:	0045c6c0 	call	45c6c <__mulsf3>
   44644:	014cb5f4 	movhi	r5,13015
   44648:	294bcd04 	addi	r5,r5,12084
   4464c:	1009883a 	mov	r4,r2
   44650:	004609c0 	call	4609c <__subsf3>
   44654:	880b883a 	mov	r5,r17
   44658:	1009883a 	mov	r4,r2
   4465c:	0045c6c0 	call	45c6c <__mulsf3>
   44660:	014d8e74 	movhi	r5,13881
   44664:	297bc6c4 	addi	r5,r5,-4325
   44668:	1009883a 	mov	r4,r2
   4466c:	00451680 	call	45168 <__addsf3>
   44670:	880b883a 	mov	r5,r17
   44674:	1009883a 	mov	r4,r2
   44678:	0045c6c0 	call	45c6c <__mulsf3>
   4467c:	014e5434 	movhi	r5,14672
   44680:	29434044 	addi	r5,r5,3329
   44684:	1009883a 	mov	r4,r2
   44688:	004609c0 	call	4609c <__subsf3>
   4468c:	880b883a 	mov	r5,r17
   44690:	1009883a 	mov	r4,r2
   44694:	0045c6c0 	call	45c6c <__mulsf3>
   44698:	014f0274 	movhi	r5,15369
   4469c:	29622244 	addi	r5,r5,-30583
   446a0:	1009883a 	mov	r4,r2
   446a4:	00451680 	call	45168 <__addsf3>
   446a8:	102b883a 	mov	r21,r2
   446ac:	a0002426 	beq	r20,zero,44740 <__kernel_sinf+0x178>
   446b0:	014fc034 	movhi	r5,16128
   446b4:	9809883a 	mov	r4,r19
   446b8:	0045c6c0 	call	45c6c <__mulsf3>
   446bc:	a80b883a 	mov	r5,r21
   446c0:	9009883a 	mov	r4,r18
   446c4:	1029883a 	mov	r20,r2
   446c8:	0045c6c0 	call	45c6c <__mulsf3>
   446cc:	100b883a 	mov	r5,r2
   446d0:	a009883a 	mov	r4,r20
   446d4:	004609c0 	call	4609c <__subsf3>
   446d8:	880b883a 	mov	r5,r17
   446dc:	1009883a 	mov	r4,r2
   446e0:	0045c6c0 	call	45c6c <__mulsf3>
   446e4:	980b883a 	mov	r5,r19
   446e8:	1009883a 	mov	r4,r2
   446ec:	004609c0 	call	4609c <__subsf3>
   446f0:	014f8af4 	movhi	r5,15915
   446f4:	296aaac4 	addi	r5,r5,-21845
   446f8:	9009883a 	mov	r4,r18
   446fc:	1023883a 	mov	r17,r2
   44700:	0045c6c0 	call	45c6c <__mulsf3>
   44704:	100b883a 	mov	r5,r2
   44708:	8809883a 	mov	r4,r17
   4470c:	00451680 	call	45168 <__addsf3>
   44710:	100b883a 	mov	r5,r2
   44714:	8009883a 	mov	r4,r16
   44718:	004609c0 	call	4609c <__subsf3>
   4471c:	dfc00617 	ldw	ra,24(sp)
   44720:	dd400517 	ldw	r21,20(sp)
   44724:	dd000417 	ldw	r20,16(sp)
   44728:	dcc00317 	ldw	r19,12(sp)
   4472c:	dc800217 	ldw	r18,8(sp)
   44730:	dc400117 	ldw	r17,4(sp)
   44734:	dc000017 	ldw	r16,0(sp)
   44738:	dec00704 	addi	sp,sp,28
   4473c:	f800283a 	ret
   44740:	8809883a 	mov	r4,r17
   44744:	100b883a 	mov	r5,r2
   44748:	0045c6c0 	call	45c6c <__mulsf3>
   4474c:	014f8af4 	movhi	r5,15915
   44750:	296aaac4 	addi	r5,r5,-21845
   44754:	1009883a 	mov	r4,r2
   44758:	004609c0 	call	4609c <__subsf3>
   4475c:	900b883a 	mov	r5,r18
   44760:	1009883a 	mov	r4,r2
   44764:	0045c6c0 	call	45c6c <__mulsf3>
   44768:	800b883a 	mov	r5,r16
   4476c:	1009883a 	mov	r4,r2
   44770:	00451680 	call	45168 <__addsf3>
   44774:	003fe906 	br	4471c <_exit+0xfffa4710>
   44778:	8005883a 	mov	r2,r16
   4477c:	003fe706 	br	4471c <_exit+0xfffa4710>

00044780 <atan>:
   44780:	defff704 	addi	sp,sp,-36
   44784:	dc400115 	stw	r17,4(sp)
   44788:	04600034 	movhi	r17,32768
   4478c:	8c7fffc4 	addi	r17,r17,-1
   44790:	00910434 	movhi	r2,17424
   44794:	dc800215 	stw	r18,8(sp)
   44798:	dc000015 	stw	r16,0(sp)
   4479c:	dfc00815 	stw	ra,32(sp)
   447a0:	ddc00715 	stw	r23,28(sp)
   447a4:	dd800615 	stw	r22,24(sp)
   447a8:	dd400515 	stw	r21,20(sp)
   447ac:	dd000415 	stw	r20,16(sp)
   447b0:	dcc00315 	stw	r19,12(sp)
   447b4:	2c62703a 	and	r17,r5,r17
   447b8:	10bfffc4 	addi	r2,r2,-1
   447bc:	2821883a 	mov	r16,r5
   447c0:	2025883a 	mov	r18,r4
   447c4:	1440090e 	bge	r2,r17,447ec <atan+0x6c>
   447c8:	009ffc34 	movhi	r2,32752
   447cc:	1440bf16 	blt	r2,r17,44acc <atan+0x34c>
   447d0:	8880bd26 	beq	r17,r2,44ac8 <atan+0x348>
   447d4:	00951134 	movhi	r2,21572
   447d8:	108b4604 	addi	r2,r2,11544
   447dc:	0400fc0e 	bge	zero,r16,44bd0 <atan+0x450>
   447e0:	00cffe74 	movhi	r3,16377
   447e4:	18c87ec4 	addi	r3,r3,8699
   447e8:	0000bd06 	br	44ae0 <atan+0x360>
   447ec:	008ff734 	movhi	r2,16348
   447f0:	10bfffc4 	addi	r2,r2,-1
   447f4:	282b883a 	mov	r21,r5
   447f8:	1440d216 	blt	r2,r17,44b44 <atan+0x3c4>
   447fc:	008f8834 	movhi	r2,15904
   44800:	10bfffc4 	addi	r2,r2,-1
   44804:	1440c10e 	bge	r2,r17,44b0c <atan+0x38c>
   44808:	053fffc4 	movi	r20,-1
   4480c:	900d883a 	mov	r6,r18
   44810:	800f883a 	mov	r7,r16
   44814:	9009883a 	mov	r4,r18
   44818:	800b883a 	mov	r5,r16
   4481c:	0047b600 	call	47b60 <__muldf3>
   44820:	100d883a 	mov	r6,r2
   44824:	180f883a 	mov	r7,r3
   44828:	1009883a 	mov	r4,r2
   4482c:	180b883a 	mov	r5,r3
   44830:	102f883a 	mov	r23,r2
   44834:	182d883a 	mov	r22,r3
   44838:	0047b600 	call	47b60 <__muldf3>
   4483c:	01b8c8f4 	movhi	r6,58147
   44840:	01cfe474 	movhi	r7,16273
   44844:	31b68444 	addi	r6,r6,-9711
   44848:	39eb4e84 	addi	r7,r7,-21190
   4484c:	1009883a 	mov	r4,r2
   44850:	180b883a 	mov	r5,r3
   44854:	1027883a 	mov	r19,r2
   44858:	1823883a 	mov	r17,r3
   4485c:	0047b600 	call	47b60 <__muldf3>
   44860:	01891db4 	movhi	r6,9334
   44864:	01cfea74 	movhi	r7,16297
   44868:	31837ac4 	addi	r6,r6,3563
   4486c:	39ded2c4 	addi	r7,r7,31563
   44870:	1009883a 	mov	r4,r2
   44874:	180b883a 	mov	r5,r3
   44878:	00467140 	call	46714 <__adddf3>
   4487c:	980d883a 	mov	r6,r19
   44880:	880f883a 	mov	r7,r17
   44884:	1009883a 	mov	r4,r2
   44888:	180b883a 	mov	r5,r3
   4488c:	0047b600 	call	47b60 <__muldf3>
   44890:	01a83434 	movhi	r6,41168
   44894:	01cfec74 	movhi	r7,16305
   44898:	318f5444 	addi	r6,r6,15697
   4489c:	39c35984 	addi	r7,r7,3430
   448a0:	1009883a 	mov	r4,r2
   448a4:	180b883a 	mov	r5,r3
   448a8:	00467140 	call	46714 <__adddf3>
   448ac:	980d883a 	mov	r6,r19
   448b0:	880f883a 	mov	r7,r17
   448b4:	1009883a 	mov	r4,r2
   448b8:	180b883a 	mov	r5,r3
   448bc:	0047b600 	call	47b60 <__muldf3>
   448c0:	01b15334 	movhi	r6,50508
   448c4:	01cfedf4 	movhi	r7,16311
   448c8:	31881b84 	addi	r6,r6,8302
   448cc:	39d17344 	addi	r7,r7,17869
   448d0:	1009883a 	mov	r4,r2
   448d4:	180b883a 	mov	r5,r3
   448d8:	00467140 	call	46714 <__adddf3>
   448dc:	980d883a 	mov	r6,r19
   448e0:	880f883a 	mov	r7,r17
   448e4:	1009883a 	mov	r4,r2
   448e8:	180b883a 	mov	r5,r3
   448ec:	0047b600 	call	47b60 <__muldf3>
   448f0:	01a48074 	movhi	r6,37377
   448f4:	01cff0b4 	movhi	r7,16322
   448f8:	31a0ffc4 	addi	r6,r6,-31745
   448fc:	39d24904 	addi	r7,r7,18724
   44900:	1009883a 	mov	r4,r2
   44904:	180b883a 	mov	r5,r3
   44908:	00467140 	call	46714 <__adddf3>
   4490c:	980d883a 	mov	r6,r19
   44910:	880f883a 	mov	r7,r17
   44914:	1009883a 	mov	r4,r2
   44918:	180b883a 	mov	r5,r3
   4491c:	0047b600 	call	47b60 <__muldf3>
   44920:	01955574 	movhi	r6,21845
   44924:	01cff574 	movhi	r7,16341
   44928:	31954344 	addi	r6,r6,21773
   4492c:	39d55544 	addi	r7,r7,21845
   44930:	1009883a 	mov	r4,r2
   44934:	180b883a 	mov	r5,r3
   44938:	00467140 	call	46714 <__adddf3>
   4493c:	b80d883a 	mov	r6,r23
   44940:	b00f883a 	mov	r7,r22
   44944:	1009883a 	mov	r4,r2
   44948:	180b883a 	mov	r5,r3
   4494c:	0047b600 	call	47b60 <__muldf3>
   44950:	018b1ab4 	movhi	r6,11370
   44954:	01efe8f4 	movhi	r7,49059
   44958:	319b0bc4 	addi	r6,r6,27695
   4495c:	39ed1104 	addi	r7,r7,-19388
   44960:	9809883a 	mov	r4,r19
   44964:	880b883a 	mov	r5,r17
   44968:	102f883a 	mov	r23,r2
   4496c:	182d883a 	mov	r22,r3
   44970:	0047b600 	call	47b60 <__muldf3>
   44974:	0194b7f4 	movhi	r6,21215
   44978:	01cfebb4 	movhi	r7,16302
   4497c:	31bf6684 	addi	r6,r6,-614
   44980:	39f78b44 	addi	r7,r7,-8659
   44984:	1009883a 	mov	r4,r2
   44988:	180b883a 	mov	r5,r3
   4498c:	00483cc0 	call	483cc <__subdf3>
   44990:	980d883a 	mov	r6,r19
   44994:	880f883a 	mov	r7,r17
   44998:	1009883a 	mov	r4,r2
   4499c:	180b883a 	mov	r5,r3
   449a0:	0047b600 	call	47b60 <__muldf3>
   449a4:	01abdd74 	movhi	r6,44917
   449a8:	01cfed34 	movhi	r7,16308
   449ac:	31a69b44 	addi	r6,r6,-26003
   449b0:	39ec3c84 	addi	r7,r7,-20238
   449b4:	1009883a 	mov	r4,r2
   449b8:	180b883a 	mov	r5,r3
   449bc:	00483cc0 	call	483cc <__subdf3>
   449c0:	980d883a 	mov	r6,r19
   449c4:	880f883a 	mov	r7,r17
   449c8:	1009883a 	mov	r4,r2
   449cc:	180b883a 	mov	r5,r3
   449d0:	0047b600 	call	47b60 <__muldf3>
   449d4:	01bf88f4 	movhi	r6,65059
   449d8:	01cfef34 	movhi	r7,16316
   449dc:	31859c44 	addi	r6,r6,5745
   449e0:	39dc7184 	addi	r7,r7,29126
   449e4:	1009883a 	mov	r4,r2
   449e8:	180b883a 	mov	r5,r3
   449ec:	00483cc0 	call	483cc <__subdf3>
   449f0:	980d883a 	mov	r6,r19
   449f4:	880f883a 	mov	r7,r17
   449f8:	1009883a 	mov	r4,r2
   449fc:	180b883a 	mov	r5,r3
   44a00:	0047b600 	call	47b60 <__muldf3>
   44a04:	01a66674 	movhi	r6,39321
   44a08:	01cff2b4 	movhi	r7,16330
   44a0c:	31baf104 	addi	r6,r6,-5180
   44a10:	39e66644 	addi	r7,r7,-26215
   44a14:	1009883a 	mov	r4,r2
   44a18:	180b883a 	mov	r5,r3
   44a1c:	00483cc0 	call	483cc <__subdf3>
   44a20:	1009883a 	mov	r4,r2
   44a24:	980d883a 	mov	r6,r19
   44a28:	880f883a 	mov	r7,r17
   44a2c:	180b883a 	mov	r5,r3
   44a30:	0047b600 	call	47b60 <__muldf3>
   44a34:	013fffc4 	movi	r4,-1
   44a38:	a1006826 	beq	r20,r4,44bdc <atan+0x45c>
   44a3c:	100d883a 	mov	r6,r2
   44a40:	180f883a 	mov	r7,r3
   44a44:	b809883a 	mov	r4,r23
   44a48:	b00b883a 	mov	r5,r22
   44a4c:	00467140 	call	46714 <__adddf3>
   44a50:	900d883a 	mov	r6,r18
   44a54:	800f883a 	mov	r7,r16
   44a58:	1009883a 	mov	r4,r2
   44a5c:	180b883a 	mov	r5,r3
   44a60:	0047b600 	call	47b60 <__muldf3>
   44a64:	a02890fa 	slli	r20,r20,3
   44a68:	1009883a 	mov	r4,r2
   44a6c:	044001b4 	movhi	r17,6
   44a70:	008001b4 	movhi	r2,6
   44a74:	10802004 	addi	r2,r2,128
   44a78:	8c402804 	addi	r17,r17,160
   44a7c:	8d23883a 	add	r17,r17,r20
   44a80:	1529883a 	add	r20,r2,r20
   44a84:	a1800017 	ldw	r6,0(r20)
   44a88:	a1c00117 	ldw	r7,4(r20)
   44a8c:	180b883a 	mov	r5,r3
   44a90:	00483cc0 	call	483cc <__subdf3>
   44a94:	900d883a 	mov	r6,r18
   44a98:	800f883a 	mov	r7,r16
   44a9c:	1009883a 	mov	r4,r2
   44aa0:	180b883a 	mov	r5,r3
   44aa4:	00483cc0 	call	483cc <__subdf3>
   44aa8:	89000017 	ldw	r4,0(r17)
   44aac:	89400117 	ldw	r5,4(r17)
   44ab0:	100d883a 	mov	r6,r2
   44ab4:	180f883a 	mov	r7,r3
   44ab8:	00483cc0 	call	483cc <__subdf3>
   44abc:	a800080e 	bge	r21,zero,44ae0 <atan+0x360>
   44ac0:	18e0003c 	xorhi	r3,r3,32768
   44ac4:	00000606 	br	44ae0 <atan+0x360>
   44ac8:	203f4226 	beq	r4,zero,447d4 <_exit+0xfffa47c8>
   44acc:	900d883a 	mov	r6,r18
   44ad0:	800f883a 	mov	r7,r16
   44ad4:	9009883a 	mov	r4,r18
   44ad8:	800b883a 	mov	r5,r16
   44adc:	00467140 	call	46714 <__adddf3>
   44ae0:	dfc00817 	ldw	ra,32(sp)
   44ae4:	ddc00717 	ldw	r23,28(sp)
   44ae8:	dd800617 	ldw	r22,24(sp)
   44aec:	dd400517 	ldw	r21,20(sp)
   44af0:	dd000417 	ldw	r20,16(sp)
   44af4:	dcc00317 	ldw	r19,12(sp)
   44af8:	dc800217 	ldw	r18,8(sp)
   44afc:	dc400117 	ldw	r17,4(sp)
   44b00:	dc000017 	ldw	r16,0(sp)
   44b04:	dec00904 	addi	sp,sp,36
   44b08:	f800283a 	ret
   44b0c:	01a20034 	movhi	r6,34816
   44b10:	01df8e34 	movhi	r7,32312
   44b14:	319d6704 	addi	r6,r6,30108
   44b18:	39f90f04 	addi	r7,r7,-7108
   44b1c:	00467140 	call	46714 <__adddf3>
   44b20:	000d883a 	mov	r6,zero
   44b24:	01cffc34 	movhi	r7,16368
   44b28:	1009883a 	mov	r4,r2
   44b2c:	180b883a 	mov	r5,r3
   44b30:	00479900 	call	47990 <__gedf2>
   44b34:	00bf340e 	bge	zero,r2,44808 <_exit+0xfffa47fc>
   44b38:	9005883a 	mov	r2,r18
   44b3c:	8007883a 	mov	r3,r16
   44b40:	003fe706 	br	44ae0 <_exit+0xfffa4ad4>
   44b44:	0044d080 	call	44d08 <fabs>
   44b48:	1025883a 	mov	r18,r2
   44b4c:	008ffcf4 	movhi	r2,16371
   44b50:	10bfffc4 	addi	r2,r2,-1
   44b54:	1821883a 	mov	r16,r3
   44b58:	14403016 	blt	r2,r17,44c1c <atan+0x49c>
   44b5c:	008ff9b4 	movhi	r2,16358
   44b60:	10bfffc4 	addi	r2,r2,-1
   44b64:	14405316 	blt	r2,r17,44cb4 <atan+0x534>
   44b68:	900d883a 	mov	r6,r18
   44b6c:	9009883a 	mov	r4,r18
   44b70:	180f883a 	mov	r7,r3
   44b74:	180b883a 	mov	r5,r3
   44b78:	00467140 	call	46714 <__adddf3>
   44b7c:	000d883a 	mov	r6,zero
   44b80:	01cffc34 	movhi	r7,16368
   44b84:	1009883a 	mov	r4,r2
   44b88:	180b883a 	mov	r5,r3
   44b8c:	00483cc0 	call	483cc <__subdf3>
   44b90:	9009883a 	mov	r4,r18
   44b94:	800b883a 	mov	r5,r16
   44b98:	000d883a 	mov	r6,zero
   44b9c:	01d00034 	movhi	r7,16384
   44ba0:	1027883a 	mov	r19,r2
   44ba4:	1823883a 	mov	r17,r3
   44ba8:	00467140 	call	46714 <__adddf3>
   44bac:	100d883a 	mov	r6,r2
   44bb0:	180f883a 	mov	r7,r3
   44bb4:	9809883a 	mov	r4,r19
   44bb8:	880b883a 	mov	r5,r17
   44bbc:	0046fc00 	call	46fc0 <__divdf3>
   44bc0:	1025883a 	mov	r18,r2
   44bc4:	1821883a 	mov	r16,r3
   44bc8:	0029883a 	mov	r20,zero
   44bcc:	003f0f06 	br	4480c <_exit+0xfffa4800>
   44bd0:	00effe74 	movhi	r3,49145
   44bd4:	18c87ec4 	addi	r3,r3,8699
   44bd8:	003fc106 	br	44ae0 <_exit+0xfffa4ad4>
   44bdc:	b809883a 	mov	r4,r23
   44be0:	b00b883a 	mov	r5,r22
   44be4:	100d883a 	mov	r6,r2
   44be8:	180f883a 	mov	r7,r3
   44bec:	00467140 	call	46714 <__adddf3>
   44bf0:	900d883a 	mov	r6,r18
   44bf4:	800f883a 	mov	r7,r16
   44bf8:	1009883a 	mov	r4,r2
   44bfc:	180b883a 	mov	r5,r3
   44c00:	0047b600 	call	47b60 <__muldf3>
   44c04:	100d883a 	mov	r6,r2
   44c08:	180f883a 	mov	r7,r3
   44c0c:	9009883a 	mov	r4,r18
   44c10:	800b883a 	mov	r5,r16
   44c14:	00483cc0 	call	483cc <__subdf3>
   44c18:	003fb106 	br	44ae0 <_exit+0xfffa4ad4>
   44c1c:	009000f4 	movhi	r2,16387
   44c20:	109fffc4 	addi	r2,r2,32767
   44c24:	14401a16 	blt	r2,r17,44c90 <atan+0x510>
   44c28:	9009883a 	mov	r4,r18
   44c2c:	000d883a 	mov	r6,zero
   44c30:	01cffe34 	movhi	r7,16376
   44c34:	180b883a 	mov	r5,r3
   44c38:	00483cc0 	call	483cc <__subdf3>
   44c3c:	9009883a 	mov	r4,r18
   44c40:	800b883a 	mov	r5,r16
   44c44:	000d883a 	mov	r6,zero
   44c48:	01cffe34 	movhi	r7,16376
   44c4c:	1027883a 	mov	r19,r2
   44c50:	1823883a 	mov	r17,r3
   44c54:	0047b600 	call	47b60 <__muldf3>
   44c58:	000d883a 	mov	r6,zero
   44c5c:	01cffc34 	movhi	r7,16368
   44c60:	1009883a 	mov	r4,r2
   44c64:	180b883a 	mov	r5,r3
   44c68:	00467140 	call	46714 <__adddf3>
   44c6c:	100d883a 	mov	r6,r2
   44c70:	180f883a 	mov	r7,r3
   44c74:	9809883a 	mov	r4,r19
   44c78:	880b883a 	mov	r5,r17
   44c7c:	0046fc00 	call	46fc0 <__divdf3>
   44c80:	1025883a 	mov	r18,r2
   44c84:	1821883a 	mov	r16,r3
   44c88:	05000084 	movi	r20,2
   44c8c:	003edf06 	br	4480c <_exit+0xfffa4800>
   44c90:	900d883a 	mov	r6,r18
   44c94:	180f883a 	mov	r7,r3
   44c98:	0009883a 	mov	r4,zero
   44c9c:	016ffc34 	movhi	r5,49136
   44ca0:	0046fc00 	call	46fc0 <__divdf3>
   44ca4:	1025883a 	mov	r18,r2
   44ca8:	1821883a 	mov	r16,r3
   44cac:	050000c4 	movi	r20,3
   44cb0:	003ed606 	br	4480c <_exit+0xfffa4800>
   44cb4:	9009883a 	mov	r4,r18
   44cb8:	000d883a 	mov	r6,zero
   44cbc:	01cffc34 	movhi	r7,16368
   44cc0:	180b883a 	mov	r5,r3
   44cc4:	00483cc0 	call	483cc <__subdf3>
   44cc8:	9009883a 	mov	r4,r18
   44ccc:	800b883a 	mov	r5,r16
   44cd0:	000d883a 	mov	r6,zero
   44cd4:	01cffc34 	movhi	r7,16368
   44cd8:	1027883a 	mov	r19,r2
   44cdc:	1823883a 	mov	r17,r3
   44ce0:	00467140 	call	46714 <__adddf3>
   44ce4:	100d883a 	mov	r6,r2
   44ce8:	180f883a 	mov	r7,r3
   44cec:	9809883a 	mov	r4,r19
   44cf0:	880b883a 	mov	r5,r17
   44cf4:	0046fc00 	call	46fc0 <__divdf3>
   44cf8:	1025883a 	mov	r18,r2
   44cfc:	1821883a 	mov	r16,r3
   44d00:	05000044 	movi	r20,1
   44d04:	003ec106 	br	4480c <_exit+0xfffa4800>

00044d08 <fabs>:
   44d08:	00e00034 	movhi	r3,32768
   44d0c:	18ffffc4 	addi	r3,r3,-1
   44d10:	2005883a 	mov	r2,r4
   44d14:	28c6703a 	and	r3,r5,r3
   44d18:	f800283a 	ret

00044d1c <fabsf>:
   44d1c:	00a00034 	movhi	r2,32768
   44d20:	10bfffc4 	addi	r2,r2,-1
   44d24:	2084703a 	and	r2,r4,r2
   44d28:	f800283a 	ret

00044d2c <floorf>:
   44d2c:	defffa04 	addi	sp,sp,-24
   44d30:	dc800215 	stw	r18,8(sp)
   44d34:	04a00034 	movhi	r18,32768
   44d38:	94bfffc4 	addi	r18,r18,-1
   44d3c:	9124703a 	and	r18,r18,r4
   44d40:	dc400115 	stw	r17,4(sp)
   44d44:	9022d5fa 	srli	r17,r18,23
   44d48:	dc000015 	stw	r16,0(sp)
   44d4c:	dfc00515 	stw	ra,20(sp)
   44d50:	dd000415 	stw	r20,16(sp)
   44d54:	dcc00315 	stw	r19,12(sp)
   44d58:	8c7fe044 	addi	r17,r17,-127
   44d5c:	00800584 	movi	r2,22
   44d60:	2021883a 	mov	r16,r4
   44d64:	14401216 	blt	r2,r17,44db0 <floorf+0x84>
   44d68:	2029883a 	mov	r20,r4
   44d6c:	88001f16 	blt	r17,zero,44dec <floorf+0xc0>
   44d70:	04802034 	movhi	r18,128
   44d74:	94bfffc4 	addi	r18,r18,-1
   44d78:	9465d83a 	sra	r18,r18,r17
   44d7c:	9104703a 	and	r2,r18,r4
   44d80:	10000e26 	beq	r2,zero,44dbc <floorf+0x90>
   44d84:	015c52b4 	movhi	r5,29002
   44d88:	297cb284 	addi	r5,r5,-3382
   44d8c:	00451680 	call	45168 <__addsf3>
   44d90:	000b883a 	mov	r5,zero
   44d94:	1009883a 	mov	r4,r2
   44d98:	0045ae80 	call	45ae8 <__gesf2>
   44d9c:	0080070e 	bge	zero,r2,44dbc <floorf+0x90>
   44da0:	80001c16 	blt	r16,zero,44e14 <floorf+0xe8>
   44da4:	0484303a 	nor	r2,zero,r18
   44da8:	1504703a 	and	r2,r2,r20
   44dac:	00000406 	br	44dc0 <floorf+0x94>
   44db0:	009fe034 	movhi	r2,32640
   44db4:	10bfffc4 	addi	r2,r2,-1
   44db8:	14800936 	bltu	r2,r18,44de0 <floorf+0xb4>
   44dbc:	8005883a 	mov	r2,r16
   44dc0:	dfc00517 	ldw	ra,20(sp)
   44dc4:	dd000417 	ldw	r20,16(sp)
   44dc8:	dcc00317 	ldw	r19,12(sp)
   44dcc:	dc800217 	ldw	r18,8(sp)
   44dd0:	dc400117 	ldw	r17,4(sp)
   44dd4:	dc000017 	ldw	r16,0(sp)
   44dd8:	dec00604 	addi	sp,sp,24
   44ddc:	f800283a 	ret
   44de0:	200b883a 	mov	r5,r4
   44de4:	00451680 	call	45168 <__addsf3>
   44de8:	003ff506 	br	44dc0 <_exit+0xfffa4db4>
   44dec:	015c52b4 	movhi	r5,29002
   44df0:	297cb284 	addi	r5,r5,-3382
   44df4:	00451680 	call	45168 <__addsf3>
   44df8:	000b883a 	mov	r5,zero
   44dfc:	1009883a 	mov	r4,r2
   44e00:	0045ae80 	call	45ae8 <__gesf2>
   44e04:	00bfed0e 	bge	zero,r2,44dbc <_exit+0xfffa4db0>
   44e08:	80000616 	blt	r16,zero,44e24 <floorf+0xf8>
   44e0c:	0005883a 	mov	r2,zero
   44e10:	003feb06 	br	44dc0 <_exit+0xfffa4db4>
   44e14:	00802034 	movhi	r2,128
   44e18:	1445d83a 	sra	r2,r2,r17
   44e1c:	1429883a 	add	r20,r2,r16
   44e20:	003fe006 	br	44da4 <_exit+0xfffa4d98>
   44e24:	903fe526 	beq	r18,zero,44dbc <_exit+0xfffa4db0>
   44e28:	00afe034 	movhi	r2,49024
   44e2c:	003fe406 	br	44dc0 <_exit+0xfffa4db4>

00044e30 <scalbnf>:
   44e30:	00e00034 	movhi	r3,32768
   44e34:	18ffffc4 	addi	r3,r3,-1
   44e38:	1906703a 	and	r3,r3,r4
   44e3c:	200f883a 	mov	r7,r4
   44e40:	18001f26 	beq	r3,zero,44ec0 <scalbnf+0x90>
   44e44:	defffe04 	addi	sp,sp,-8
   44e48:	009fe034 	movhi	r2,32640
   44e4c:	dc000015 	stw	r16,0(sp)
   44e50:	dfc00115 	stw	ra,4(sp)
   44e54:	10bfffc4 	addi	r2,r2,-1
   44e58:	2821883a 	mov	r16,r5
   44e5c:	10c01236 	bltu	r2,r3,44ea8 <scalbnf+0x78>
   44e60:	00802034 	movhi	r2,128
   44e64:	10bfffc4 	addi	r2,r2,-1
   44e68:	10c0172e 	bgeu	r2,r3,44ec8 <scalbnf+0x98>
   44e6c:	1806d5fa 	srli	r3,r3,23
   44e70:	2005883a 	mov	r2,r4
   44e74:	1c07883a 	add	r3,r3,r16
   44e78:	01003f84 	movi	r4,254
   44e7c:	20c02316 	blt	r4,r3,44f0c <scalbnf+0xdc>
   44e80:	00c01b0e 	bge	zero,r3,44ef0 <scalbnf+0xc0>
   44e84:	180695fa 	slli	r3,r3,23
   44e88:	01602034 	movhi	r5,32896
   44e8c:	297fffc4 	addi	r5,r5,-1
   44e90:	1144703a 	and	r2,r2,r5
   44e94:	10c4b03a 	or	r2,r2,r3
   44e98:	dfc00117 	ldw	ra,4(sp)
   44e9c:	dc000017 	ldw	r16,0(sp)
   44ea0:	dec00204 	addi	sp,sp,8
   44ea4:	f800283a 	ret
   44ea8:	200b883a 	mov	r5,r4
   44eac:	00451680 	call	45168 <__addsf3>
   44eb0:	dfc00117 	ldw	ra,4(sp)
   44eb4:	dc000017 	ldw	r16,0(sp)
   44eb8:	dec00204 	addi	sp,sp,8
   44ebc:	f800283a 	ret
   44ec0:	2005883a 	mov	r2,r4
   44ec4:	f800283a 	ret
   44ec8:	01530034 	movhi	r5,19456
   44ecc:	0045c6c0 	call	45c6c <__mulsf3>
   44ed0:	00fffff4 	movhi	r3,65535
   44ed4:	18cf2c04 	addi	r3,r3,15536
   44ed8:	100f883a 	mov	r7,r2
   44edc:	80c01716 	blt	r16,r3,44f3c <scalbnf+0x10c>
   44ee0:	119fe02c 	andhi	r6,r2,32640
   44ee4:	300dd5fa 	srai	r6,r6,23
   44ee8:	30fff9c4 	addi	r3,r6,-25
   44eec:	003fe106 	br	44e74 <_exit+0xfffa4e68>
   44ef0:	013ffa84 	movi	r4,-22
   44ef4:	1900160e 	bge	r3,r4,44f50 <scalbnf+0x120>
   44ef8:	00b0d414 	movui	r2,50000
   44efc:	14000316 	blt	r2,r16,44f0c <scalbnf+0xdc>
   44f00:	040368b4 	movhi	r16,3490
   44f04:	84109804 	addi	r16,r16,16992
   44f08:	00000206 	br	44f14 <scalbnf+0xe4>
   44f0c:	041c52b4 	movhi	r16,29002
   44f10:	843cb284 	addi	r16,r16,-3382
   44f14:	380b883a 	mov	r5,r7
   44f18:	8009883a 	mov	r4,r16
   44f1c:	0044f740 	call	44f74 <copysignf>
   44f20:	800b883a 	mov	r5,r16
   44f24:	1009883a 	mov	r4,r2
   44f28:	0045c6c0 	call	45c6c <__mulsf3>
   44f2c:	dfc00117 	ldw	ra,4(sp)
   44f30:	dc000017 	ldw	r16,0(sp)
   44f34:	dec00204 	addi	sp,sp,8
   44f38:	f800283a 	ret
   44f3c:	014368b4 	movhi	r5,3490
   44f40:	29509804 	addi	r5,r5,16992
   44f44:	1009883a 	mov	r4,r2
   44f48:	0045c6c0 	call	45c6c <__mulsf3>
   44f4c:	003fd806 	br	44eb0 <_exit+0xfffa4ea4>
   44f50:	18c00644 	addi	r3,r3,25
   44f54:	180c95fa 	slli	r6,r3,23
   44f58:	01202034 	movhi	r4,32896
   44f5c:	213fffc4 	addi	r4,r4,-1
   44f60:	1108703a 	and	r4,r2,r4
   44f64:	014cc034 	movhi	r5,13056
   44f68:	3108b03a 	or	r4,r6,r4
   44f6c:	0045c6c0 	call	45c6c <__mulsf3>
   44f70:	003fcf06 	br	44eb0 <_exit+0xfffa4ea4>

00044f74 <copysignf>:
   44f74:	00e00034 	movhi	r3,32768
   44f78:	18ffffc4 	addi	r3,r3,-1
   44f7c:	28a0002c 	andhi	r2,r5,32768
   44f80:	20c8703a 	and	r4,r4,r3
   44f84:	2084b03a 	or	r2,r4,r2
   44f88:	f800283a 	ret

00044f8c <__divsi3>:
   44f8c:	20001b16 	blt	r4,zero,44ffc <__divsi3+0x70>
   44f90:	000f883a 	mov	r7,zero
   44f94:	28001616 	blt	r5,zero,44ff0 <__divsi3+0x64>
   44f98:	200d883a 	mov	r6,r4
   44f9c:	29001a2e 	bgeu	r5,r4,45008 <__divsi3+0x7c>
   44fa0:	00800804 	movi	r2,32
   44fa4:	00c00044 	movi	r3,1
   44fa8:	00000106 	br	44fb0 <__divsi3+0x24>
   44fac:	10000d26 	beq	r2,zero,44fe4 <__divsi3+0x58>
   44fb0:	294b883a 	add	r5,r5,r5
   44fb4:	10bfffc4 	addi	r2,r2,-1
   44fb8:	18c7883a 	add	r3,r3,r3
   44fbc:	293ffb36 	bltu	r5,r4,44fac <_exit+0xfffa4fa0>
   44fc0:	0005883a 	mov	r2,zero
   44fc4:	18000726 	beq	r3,zero,44fe4 <__divsi3+0x58>
   44fc8:	0005883a 	mov	r2,zero
   44fcc:	31400236 	bltu	r6,r5,44fd8 <__divsi3+0x4c>
   44fd0:	314dc83a 	sub	r6,r6,r5
   44fd4:	10c4b03a 	or	r2,r2,r3
   44fd8:	1806d07a 	srli	r3,r3,1
   44fdc:	280ad07a 	srli	r5,r5,1
   44fe0:	183ffa1e 	bne	r3,zero,44fcc <_exit+0xfffa4fc0>
   44fe4:	38000126 	beq	r7,zero,44fec <__divsi3+0x60>
   44fe8:	0085c83a 	sub	r2,zero,r2
   44fec:	f800283a 	ret
   44ff0:	014bc83a 	sub	r5,zero,r5
   44ff4:	39c0005c 	xori	r7,r7,1
   44ff8:	003fe706 	br	44f98 <_exit+0xfffa4f8c>
   44ffc:	0109c83a 	sub	r4,zero,r4
   45000:	01c00044 	movi	r7,1
   45004:	003fe306 	br	44f94 <_exit+0xfffa4f88>
   45008:	00c00044 	movi	r3,1
   4500c:	003fee06 	br	44fc8 <_exit+0xfffa4fbc>

00045010 <__modsi3>:
   45010:	20001716 	blt	r4,zero,45070 <__modsi3+0x60>
   45014:	000f883a 	mov	r7,zero
